ccopy_reg
_reconstructor
p1
(ccodepy.jit
_SourceInfo
p2
c__builtin__
object
p3
NtRp4
(dp5
S'dependencies'
p6
(lp7
(S'/usr/include/_G_config.h'
F1295827747
S'ef82adb9801d9d9e111d0104c1a0b47e'
tp8
a(S'/usr/include/alloca.h'
F1295827745
S'2cd6c8d99645ffaa331ba97e071bca67'
tp9
a(S'/usr/include/asm-generic/errno-base.h'
F1299635708
S'9cc3432868819357360dbb25e9f6ba85'
tp10
a(S'/usr/include/asm-generic/errno.h'
F1299635708
S'e6f01595554e456a59a85d0e7c9edfa1'
tp11
a(S'/usr/include/asm/errno.h'
F1299635711
S'05366a204880e8cf1fcd3e61ef3cfa41'
tp12
a(S'/usr/include/assert.h'
F1295827739
S'201b820c8e43ae5fb3106375278176d9'
tp13
a(S'/usr/include/bits/byteswap.h'
F1295827749
S'f5d9de88196821f8268b3ace5cbd178e'
tp14
a(S'/usr/include/bits/confname.h'
F1295827755
S'00e4d78a4236b62956d1d1a5558fdcbd'
tp15
a(S'/usr/include/bits/endian.h'
F1295827749
S'93f54525ca894fe9c4f79236cd9b8bf3'
tp16
a(S'/usr/include/bits/environments.h'
F1295827755
S'78bac5d3e36a6ef3798a7bf1c301b6e4'
tp17
a(S'/usr/include/bits/errno.h'
F1295827745
S'97de64169b1028268f5fe3eed13b3b3c'
tp18
a(S'/usr/include/bits/huge_val.h'
F1295827742
S'7d926492a2e0a393e5906e3011e5f497'
tp19
a(S'/usr/include/bits/huge_valf.h'
F1295827742
S'6eaa4b092b1944bb9f87e938c05eeb1f'
tp20
a(S'/usr/include/bits/huge_vall.h'
F1295827742
S'6deb31a0b7de1627942117acd0cb3495'
tp21
a(S'/usr/include/bits/inf.h'
F1295827742
S'1555fdea51bc5cd377f25ad33a53cebd'
tp22
a(S'/usr/include/bits/local_lim.h'
F1295827755
S'c2f616041ff54a16609202ed2656ac32'
tp23
a(S'/usr/include/bits/locale.h'
F1295827721
S'22ac7e4c99fa2d998f0e0b628dc5d458'
tp24
a(S'/usr/include/bits/mathcalls.h'
F1295827742
S'8c1e9a3c1f2bf6006ae4bb2d96a0a986'
tp25
a(S'/usr/include/bits/mathdef.h'
F1295827742
S'a64bfd1193a4c99a17ac80e8de3695e0'
tp26
a(S'/usr/include/bits/nan.h'
F1295827742
S'29e03be217cb85cd7b251aa08c79875a'
tp27
a(S'/usr/include/bits/posix1_lim.h'
F1295827755
S'2c7aa6b19039b47ce3063cc5204c8d9a'
tp28
a(S'/usr/include/bits/posix2_lim.h'
F1295827755
S'ad1018e60e5db93782095d61f1f91665'
tp29
a(S'/usr/include/bits/posix_opt.h'
F1295827755
S'c3845b95c7c3dfb63d158d61cb45b177'
tp30
a(S'/usr/include/bits/predefs.h'
F1295827719
S'7a9d654c52f9cd2fe781cebbf0d66ec1'
tp31
a(S'/usr/include/bits/pthreadtypes.h'
F1295827755
S'66624b434da8e2e8850685cc60d5c77f'
tp32
a(S'/usr/include/bits/sched.h'
F1295827755
S'fae0bfbf22dc53866e357a4354b1789e'
tp33
a(S'/usr/include/bits/select.h'
F1295827758
S'2b45483bd25a9b79190400f34a4ce267'
tp34
a(S'/usr/include/bits/setjmp.h'
F1295827743
S'569f5de580970655042e7b79f08ca930'
tp35
a(S'/usr/include/bits/sigaction.h'
F1295827744
S'7083cc35df3247290d30d008513fef47'
tp36
a(S'/usr/include/bits/sigcontext.h'
F1295827744
S'186444b0a87c414e012aa8d0f46e7fd9'
tp37
a(S'/usr/include/bits/siginfo.h'
F1295827744
S'd9aea83a7368b5597a7d79f0075a90f4'
tp38
a(S'/usr/include/bits/signum.h'
F1295827744
S'bc480b97ac477ff40a3ad689a1296f4d'
tp39
a(S'/usr/include/bits/sigset.h'
F1295827744
S'621a88e81f6a381d97852e76bf05ef79'
tp40
a(S'/usr/include/bits/sigstack.h'
F1295827744
S'97fdbb81a16c152c9c79dcbf576edea4'
tp41
a(S'/usr/include/bits/sigthread.h'
F1295827744
S'c5b554000b940c057cc41c6f2b4a9fbc'
tp42
a(S'/usr/include/bits/stat.h'
F1295827756
S'aae5289421e1fc235ea474e0472be8ad'
tp43
a(S'/usr/include/bits/stdio_lim.h'
F1295827746
S'bf974cf5d3e2a259e3622482025dc0e0'
tp44
a(S'/usr/include/bits/sys_errlist.h'
F1295827747
S'e7734f693e8e68fcc97d98e790d024a1'
tp45
a(S'/usr/include/bits/time.h'
F1295827752
S'39b0c941e291970324de2709f164c3be'
tp46
a(S'/usr/include/bits/types.h'
F1295827755
S'4d4d4224ed1a8e7740eb337703df2f2b'
tp47
a(S'/usr/include/bits/typesizes.h'
F1295827755
S'af928b23500851e2da8cd3ec56d56edf'
tp48
a(S'/usr/include/bits/waitflags.h'
F1295827755
S'655eb29e7f589e68eb1016141f2ffe43'
tp49
a(S'/usr/include/bits/waitstatus.h'
F1295827755
S'8354b3a67075f5d1707f2ddc0f640057'
tp50
a(S'/usr/include/bits/wchar.h'
F1295827750
S'5deba64d1e4773df7de6396f4c997525'
tp51
a(S'/usr/include/bits/wordsize.h'
F1295827745
S'30529eb770bdf401a7dc82c1659f4364'
tp52
a(S'/usr/include/bits/xopen_lim.h'
F1295827719
S'531840a20e5d74fac2826604bd620025'
tp53
a(S'/usr/include/boost/aligned_storage.hpp'
F1280128830
S'695b7cb1c53d9c1b729dcac380687f74'
tp54
a(S'/usr/include/boost/assert.hpp'
F1280128830
S'2304ee8a1de98cffdaf664516ced3b07'
tp55
a(S'/usr/include/boost/bind.hpp'
F1280128830
S'4ad0dbf41cdfedb366e536d93b5011b0'
tp56
a(S'/usr/include/boost/bind/arg.hpp'
F1280128832
S'bfc10da8a35647fffc4fd364ee2664e3'
tp57
a(S'/usr/include/boost/bind/bind.hpp'
F1280128832
S'4cf4eaf85a7a37c277e2c0b373dba7da'
tp58
a(S'/usr/include/boost/bind/bind_cc.hpp'
F1280128832
S'ac2293c1b6b9c007c2d5017e319670dc'
tp59
a(S'/usr/include/boost/bind/bind_mf2_cc.hpp'
F1280128832
S'fdac093b3b97f743db7c02076514fe7e'
tp60
a(S'/usr/include/boost/bind/bind_mf_cc.hpp'
F1280128832
S'98b06a6fa362590fc546bd5a7e2230fc'
tp61
a(S'/usr/include/boost/bind/bind_template.hpp'
F1280128832
S'8ccebf23ef1bd0baae99cb677797ecf4'
tp62
a(S'/usr/include/boost/bind/mem_fn.hpp'
F1280128832
S'a977505c352fa46581ffe97c24927468'
tp63
a(S'/usr/include/boost/bind/mem_fn_cc.hpp'
F1280128832
S'6083b50f4af0dad09a50e8d3738eb0b0'
tp64
a(S'/usr/include/boost/bind/mem_fn_template.hpp'
F1280128832
S'0361f51130e131b33aab0665c59680df'
tp65
a(S'/usr/include/boost/bind/placeholders.hpp'
F1280128832
S'a9f3171f8463fd2c4113a55d6ad49909'
tp66
a(S'/usr/include/boost/bind/protect.hpp'
F1280128832
S'541832293f958b4189520aa3daa67d08'
tp67
a(S'/usr/include/boost/bind/storage.hpp'
F1280128832
S'ef237b9e4908bf0a472aaa6bfdb8f756'
tp68
a(S'/usr/include/boost/call_traits.hpp'
F1280128830
S'be8d476266e3e3caaec1125ae51d78ca'
tp69
a(S'/usr/include/boost/checked_delete.hpp'
F1280128830
S'6727abb8f3e679e6443ca262332363c1'
tp70
a(S'/usr/include/boost/compressed_pair.hpp'
F1280128830
S'6a990b831de89e0c06425f438c3210b3'
tp71
a(S'/usr/include/boost/config.hpp'
F1280128830
S'9666bcff467fd9a7cb7c64151d65fc35'
tp72
a(S'/usr/include/boost/config/auto_link.hpp'
F1280128834
S'e95a61f357fb0994c74d5626cc838af4'
tp73
a(S'/usr/include/boost/config/compiler/gcc.hpp'
F1280128838
S'3f5625d894be396ddd8b3172a6cbf537'
tp74
a(S'/usr/include/boost/config/no_tr1/functional.hpp'
F1280128838
S'01a82692fd6c7e74311f1fbb2596766e'
tp75
a(S'/usr/include/boost/config/no_tr1/memory.hpp'
F1280128838
S'a43f9483d0711c5fa96063bd09c18616'
tp76
a(S'/usr/include/boost/config/no_tr1/utility.hpp'
F1280128838
S'21d2737a6e9a770ef52cbc865db256f1'
tp77
a(S'/usr/include/boost/config/platform/linux.hpp'
F1280128838
S'abefbe2aebc811c66d0ebcf0443ac685'
tp78
a(S'/usr/include/boost/config/posix_features.hpp'
F1280128834
S'd4dc04a4c6d1cd10248fddef8a2a4786'
tp79
a(S'/usr/include/boost/config/select_compiler_config.hpp'
F1280128834
S'8936d6fa52e3b9767da74e46477c1bea'
tp80
a(S'/usr/include/boost/config/select_platform_config.hpp'
F1280128834
S'55e8ffd63fba6a9088cc44989344a9bb'
tp81
a(S'/usr/include/boost/config/select_stdlib_config.hpp'
F1280128834
S'0815edb50871f1f86e263d8b77e74522'
tp82
a(S'/usr/include/boost/config/stdlib/libstdcpp3.hpp'
F1280128838
S'f93c0657db1cfd006555bfd3129a3c3e'
tp83
a(S'/usr/include/boost/config/suffix.hpp'
F1280128834
S'd742e6d7974bf1f358d8765f87239d8f'
tp84
a(S'/usr/include/boost/config/user.hpp'
F1280128834
S'401a8b66eca24580b939580ba704b2bd'
tp85
a(S'/usr/include/boost/cstdint.hpp'
F1280128830
S'501e1385d8d1815803deeb03af5790b8'
tp86
a(S'/usr/include/boost/current_function.hpp'
F1280128830
S'794eb99c3523433fe63a57915cc30b5e'
tp87
a(S'/usr/include/boost/detail/call_traits.hpp'
F1280128831
S'88b63a6ee224f7207a4561e9bd48b369'
tp88
a(S'/usr/include/boost/detail/compressed_pair.hpp'
F1280128831
S'525cf1ad085d82d4247505ba1d543a5c'
tp89
a(S'/usr/include/boost/detail/indirect_traits.hpp'
F1280128831
S'4ae585524bba454d71f34d98624a4f4d'
tp90
a(S'/usr/include/boost/detail/is_xxx.hpp'
F1280128831
S'1be08778c8be645b43ffebf6f08ae2aa'
tp91
a(S'/usr/include/boost/detail/iterator.hpp'
F1280128831
S'c57ee95fc8d7bb0fdf31ee8518ef5883'
tp92
a(S'/usr/include/boost/detail/lcast_precision.hpp'
F1280128831
S'11c08a1398ca66c2bec56dbcc0721a08'
tp93
a(S'/usr/include/boost/detail/no_exceptions_support.hpp'
F1280128831
S'f9e02ee51abd5893a975634c1f14823c'
tp94
a(S'/usr/include/boost/detail/sp_typeinfo.hpp'
F1280128831
S'9d40d6d15e2d4efe7a75f906b20cb107'
tp95
a(S'/usr/include/boost/detail/workaround.hpp'
F1280128831
S'599506af3c098156eb0210412d5baaab'
tp96
a(S'/usr/include/boost/exception/detail/attribute_noreturn.hpp'
F1280128838
S'3d751afc3569395671d525f95122962a'
tp97
a(S'/usr/include/boost/exception/exception.hpp'
F1280128834
S'a72f46c930ddec4aa8d6bef16f70515d'
tp98
a(S'/usr/include/boost/function/detail/maybe_include.hpp'
F1280128837
S'395929e9bc77f20e63196a9eae905e31'
tp99
a(S'/usr/include/boost/function/detail/prologue.hpp'
F1280128837
S'297645fa0cf2a1ad7acf139b7bf8fd8e'
tp100
a(S'/usr/include/boost/function/function0.hpp'
F1280128832
S'69a21eb7ecb9fa7c5630b8e1b50f5101'
tp101
a(S'/usr/include/boost/function/function2.hpp'
F1280128832
S'17b7e5a3b7ad215a62c0869dc0c8992f'
tp102
a(S'/usr/include/boost/function/function_base.hpp'
F1280128832
S'd8dfaaa10ebe6a2e52989c196198c02d'
tp103
a(S'/usr/include/boost/function/function_fwd.hpp'
F1280128832
S'6de8bf6efc2f62b49d3fe37ec0a0ad47'
tp104
a(S'/usr/include/boost/function/function_template.hpp'
F1280128832
S'a02e12a8c5c54e69044962638d77c1ae'
tp105
a(S'/usr/include/boost/function_equal.hpp'
F1280128830
S'026a920b53d5ff03667657cccbecaf0f'
tp106
a(S'/usr/include/boost/get_pointer.hpp'
F1280128830
S'7b5bb6668c1e53ba929970d9188bad42'
tp107
a(S'/usr/include/boost/implicit_cast.hpp'
F1280128830
S'b6e8f3a0147a30aaac92805f602c9d02'
tp108
a(S'/usr/include/boost/integer.hpp'
F1280128830
S'9dc50e5d426967302d3f30c4c2082162'
tp109
a(S'/usr/include/boost/integer_fwd.hpp'
F1280128830
S'5c96f700fa5334c82c9d89c9ca65ed2a'
tp110
a(S'/usr/include/boost/integer_traits.hpp'
F1280128830
S'e85a6b6db82c19f2cc6ad9937931f991'
tp111
a(S'/usr/include/boost/is_placeholder.hpp'
F1280128830
S'27e121b0946c12c4c6cb6247b9137ff0'
tp112
a(S'/usr/include/boost/iterator.hpp'
F1280128830
S'270e366a2d22a4c19ba21b4f32f4631e'
tp113
a(S'/usr/include/boost/iterator/detail/config_def.hpp'
F1280128834
S'bbbf0395e02b143f97a85e7366d4a929'
tp114
a(S'/usr/include/boost/iterator/detail/config_undef.hpp'
F1280128834
S'7327e62e7d386432ad7338990479d041'
tp115
a(S'/usr/include/boost/iterator/detail/enable_if.hpp'
F1280128834
S'92201dc46154935f0f59a99fd375aefb'
tp116
a(S'/usr/include/boost/lexical_cast.hpp'
F1280128830
S'0ace3b5dabc0622855c167c71544b5d6'
tp117
a(S'/usr/include/boost/limits.hpp'
F1280128830
S'9cfc1064a89fb7d84643bb5463f3d320'
tp118
a(S'/usr/include/boost/mem_fn.hpp'
F1280128830
S'd4999d76df891ed29a6cfd90bc632351'
tp119
a(S'/usr/include/boost/memory_order.hpp'
F1280128830
S'1e11c2aa598169a683bf9040b2267a29'
tp120
a(S'/usr/include/boost/mpl/O1_size.hpp'
F1280128833
S'8bdcf3a35d7962b48f3b11bb0642c957'
tp121
a(S'/usr/include/boost/mpl/O1_size_fwd.hpp'
F1280128833
S'13762e28a56c3a731693246c906cf6d4'
tp122
a(S'/usr/include/boost/mpl/advance.hpp'
F1280128832
S'd40e7d11ccf8d5e57718180be181d785'
tp123
a(S'/usr/include/boost/mpl/advance_fwd.hpp'
F1280128832
S'7ae6fafed082da73f1ed66bd941e750a'
tp124
a(S'/usr/include/boost/mpl/and.hpp'
F1280128832
S'780df33449f9d0c8e6a8bf3168551440'
tp125
a(S'/usr/include/boost/mpl/apply.hpp'
F1280128832
S'b84c051e7337c30d63e3948c2f89c626'
tp126
a(S'/usr/include/boost/mpl/apply_fwd.hpp'
F1280128833
S'896777e3b5e4ce14d9d34be8a0338db9'
tp127
a(S'/usr/include/boost/mpl/apply_wrap.hpp'
F1280128832
S'a1c6382386098a72ac431700de611703'
tp128
a(S'/usr/include/boost/mpl/arg.hpp'
F1280128833
S'dd2a5f4e349ab0aa6f467ab9e1278e54'
tp129
a(S'/usr/include/boost/mpl/arg_fwd.hpp'
F1280128832
S'31048578abec28d714dcf13b2c0d2a50'
tp130
a(S'/usr/include/boost/mpl/assert.hpp'
F1280128832
S'12f90575b265d7fd2e6b52dfffeae511'
tp131
a(S'/usr/include/boost/mpl/at.hpp'
F1280128833
S'ee6dcfc83905b4a9634c0ac2b717bf7b'
tp132
a(S'/usr/include/boost/mpl/at_fwd.hpp'
F1280128832
S'36ab56d7a8da442d5102f41c7078cea1'
tp133
a(S'/usr/include/boost/mpl/aux_/O1_size_impl.hpp'
F1280128837
S'04f865eb87489c11a8dd7a3d1a6d7563'
tp134
a(S'/usr/include/boost/mpl/aux_/adl_barrier.hpp'
F1280128837
S'b0fd8189e0fa7e12310d59c2fea8f7d4'
tp135
a(S'/usr/include/boost/mpl/aux_/advance_backward.hpp'
F1280128837
S'65be2236e0824b0f5b71bde53dbb3db4'
tp136
a(S'/usr/include/boost/mpl/aux_/advance_forward.hpp'
F1280128837
S'8da1b382efefc10deb8f774dc4e7ed2d'
tp137
a(S'/usr/include/boost/mpl/aux_/arg_typedef.hpp'
F1280128837
S'0192b5196efd1eb4518b22df4bc3c5a4'
tp138
a(S'/usr/include/boost/mpl/aux_/arithmetic_op.hpp'
F1280128837
S'84276c3e7cf507ec4ab2347c61ea1b21'
tp139
a(S'/usr/include/boost/mpl/aux_/arity.hpp'
F1280128837
S'880c3d8425bbb5f1820e6a6af0ee90c8'
tp140
a(S'/usr/include/boost/mpl/aux_/arity_spec.hpp'
F1280128837
S'f7876e2dadb27783436a6e3176ed8de6'
tp141
a(S'/usr/include/boost/mpl/aux_/at_impl.hpp'
F1280128837
S'2ff7e24a8282eac3ae6fb22a240ec48e'
tp142
a(S'/usr/include/boost/mpl/aux_/back_impl.hpp'
F1280128837
S'c96a3b8ac0df5a67611b598a1fd063a4'
tp143
a(S'/usr/include/boost/mpl/aux_/begin_end_impl.hpp'
F1280128837
S'6cb1a23f2e637ec3032f661e25c1d180'
tp144
a(S'/usr/include/boost/mpl/aux_/common_name_wknd.hpp'
F1280128837
S'ca361b241a609fe963f4176566ffe36f'
tp145
a(S'/usr/include/boost/mpl/aux_/comparison_op.hpp'
F1280128837
S'234294a9f3b4cb99e8a14097638ef8c5'
tp146
a(S'/usr/include/boost/mpl/aux_/config/adl.hpp'
F1280128840
S'2461f443210ed30d77fd25d293253d08'
tp147
a(S'/usr/include/boost/mpl/aux_/config/arrays.hpp'
F1280128840
S'b438fe7587a0d161338ac726b7ceb76c'
tp148
a(S'/usr/include/boost/mpl/aux_/config/bcc.hpp'
F1280128840
S'5986366038ff674c9cdd8f68b63d45a1'
tp149
a(S'/usr/include/boost/mpl/aux_/config/bind.hpp'
F1280128840
S'c7aee397aaebad6cdb15763d125e270f'
tp150
a(S'/usr/include/boost/mpl/aux_/config/compiler.hpp'
F1280128840
S'3bc213a90b9e96558d1093e1b3c6d0e5'
tp151
a(S'/usr/include/boost/mpl/aux_/config/ctps.hpp'
F1280128840
S'2437ff42ec311b7bb20e0068e0f24a9b'
tp152
a(S'/usr/include/boost/mpl/aux_/config/dtp.hpp'
F1280128840
S'5bde07777b8e4551f85ee13a9e5012cf'
tp153
a(S'/usr/include/boost/mpl/aux_/config/eti.hpp'
F1280128840
S'a21daf2da50d9f371d19d1238e2ee569'
tp154
a(S'/usr/include/boost/mpl/aux_/config/forwarding.hpp'
F1280128840
S'13291a958fbe830958b4340dccca4ab7'
tp155
a(S'/usr/include/boost/mpl/aux_/config/gcc.hpp'
F1280128840
S'632fe4a0800ab23e5faac53828527bcb'
tp156
a(S'/usr/include/boost/mpl/aux_/config/has_apply.hpp'
F1280128840
S'd86fcfabb38098e8d66cbe31e4d61256'
tp157
a(S'/usr/include/boost/mpl/aux_/config/has_xxx.hpp'
F1280128840
S'70cafef6bfb7e5375cb59d8433e964c4'
tp158
a(S'/usr/include/boost/mpl/aux_/config/integral.hpp'
F1280128840
S'51ea84f19598b137ab946eaaa91f4b8c'
tp159
a(S'/usr/include/boost/mpl/aux_/config/intel.hpp'
F1280128840
S'72247b24905cdc93a7ff151956316262'
tp160
a(S'/usr/include/boost/mpl/aux_/config/lambda.hpp'
F1280128840
S'161def9972874c41e09629570b7a5551'
tp161
a(S'/usr/include/boost/mpl/aux_/config/msvc.hpp'
F1280128840
S'6e00f1ea03b97c4e4062e38ac9da655a'
tp162
a(S'/usr/include/boost/mpl/aux_/config/msvc_typename.hpp'
F1280128840
S'ae925c7e61689e248cd271bc1d1388e3'
tp163
a(S'/usr/include/boost/mpl/aux_/config/nttp.hpp'
F1280128840
S'e11c2b8f8d3e7ee9c74312bdb1271c4d'
tp164
a(S'/usr/include/boost/mpl/aux_/config/overload_resolution.hpp'
F1280128840
S'd346d455cd816039880985381cb0eafe'
tp165
a(S'/usr/include/boost/mpl/aux_/config/pp_counter.hpp'
F1280128840
S'a82f39d3166120fb44e9685eb669a25a'
tp166
a(S'/usr/include/boost/mpl/aux_/config/preprocessor.hpp'
F1280128840
S'f14b77510df2582322bb193cacf5fa03'
tp167
a(S'/usr/include/boost/mpl/aux_/config/static_constant.hpp'
F1280128840
S'26ba0e2964d270f4ebace6221378bf7c'
tp168
a(S'/usr/include/boost/mpl/aux_/config/ttp.hpp'
F1280128840
S'434ebabf892ebe919fc534e65420c94f'
tp169
a(S'/usr/include/boost/mpl/aux_/config/typeof.hpp'
F1280128840
S'6fafdabebd0d6f6a1558666111a610e8'
tp170
a(S'/usr/include/boost/mpl/aux_/config/use_preprocessed.hpp'
F1280128840
S'fcb886f09196714ade8f4082ff5c8303'
tp171
a(S'/usr/include/boost/mpl/aux_/config/workaround.hpp'
F1280128840
S'ea3dcbf18e9960fdac7fe775ad5acbf7'
tp172
a(S'/usr/include/boost/mpl/aux_/empty_impl.hpp'
F1280128837
S'f1abb4f5727c9c9ca9a2ba9218cf241e'
tp173
a(S'/usr/include/boost/mpl/aux_/front_impl.hpp'
F1280128837
S'504db9c69362e529530e0d42490e0235'
tp174
a(S'/usr/include/boost/mpl/aux_/full_lambda.hpp'
F1280128837
S'9940e6d0c9490d2697ed433e1fff0fb3'
tp175
a(S'/usr/include/boost/mpl/aux_/has_apply.hpp'
F1280128837
S'1d4e81c678989082cd35064daf689cbc'
tp176
a(S'/usr/include/boost/mpl/aux_/has_begin.hpp'
F1280128837
S'db25cfb014b7de610be9583a22113442'
tp177
a(S'/usr/include/boost/mpl/aux_/has_size.hpp'
F1280128837
S'f862ea99b5f7f109d4d37242dc1b51dc'
tp178
a(S'/usr/include/boost/mpl/aux_/has_tag.hpp'
F1280128837
S'254063eaf045460958584d8815c138c8'
tp179
a(S'/usr/include/boost/mpl/aux_/has_type.hpp'
F1280128837
S'a77d4c2c2e45e9b18db7b6b5d32c7d18'
tp180
a(S'/usr/include/boost/mpl/aux_/include_preprocessed.hpp'
F1280128837
S'56daa602f0cfc377d09cb15527d0b909'
tp181
a(S'/usr/include/boost/mpl/aux_/integral_wrapper.hpp'
F1280128837
S'166baca3863ebe6c4fd23321b09b0395'
tp182
a(S'/usr/include/boost/mpl/aux_/is_msvc_eti_arg.hpp'
F1280128837
S'2392b63ae877b0f66d3e711eb326730f'
tp183
a(S'/usr/include/boost/mpl/aux_/iter_fold_impl.hpp'
F1280128837
S'eaba468a4010541f485909ee54646de0'
tp184
a(S'/usr/include/boost/mpl/aux_/joint_iter.hpp'
F1280128837
S'767e9506c7658898cc8f35788dbbb88d'
tp185
a(S'/usr/include/boost/mpl/aux_/lambda_arity_param.hpp'
F1280128837
S'9722759daad1da60c3843b5d37b29ef2'
tp186
a(S'/usr/include/boost/mpl/aux_/lambda_spec.hpp'
F1280128837
S'a662a2ff0db962939030f53b74567560'
tp187
a(S'/usr/include/boost/mpl/aux_/lambda_support.hpp'
F1280128837
S'14c94bf5efa1234bee720cdf771283cc'
tp188
a(S'/usr/include/boost/mpl/aux_/largest_int.hpp'
F1280128837
S'c8c464fc3f48af64e3f0ae7148a1f629'
tp189
a(S'/usr/include/boost/mpl/aux_/msvc_eti_base.hpp'
F1280128837
S'4d2fe4b1ffc9aee56615d94ff84cb7f7'
tp190
a(S'/usr/include/boost/mpl/aux_/msvc_never_true.hpp'
F1280128837
S'1f77423a61178aa8bbfa2adaf4843328'
tp191
a(S'/usr/include/boost/mpl/aux_/msvc_type.hpp'
F1280128837
S'1bbbdcdf40a3d1ed0006088a45f4f323'
tp192
a(S'/usr/include/boost/mpl/aux_/na.hpp'
F1280128837
S'635419a545eafbeb72a6772d373e36ff'
tp193
a(S'/usr/include/boost/mpl/aux_/na_assert.hpp'
F1280128837
S'3067b83fe97909d07b78ad2c8c27c231'
tp194
a(S'/usr/include/boost/mpl/aux_/na_fwd.hpp'
F1280128837
S'1e6d6d87ecbe2b55c0ae0502958689a9'
tp195
a(S'/usr/include/boost/mpl/aux_/na_spec.hpp'
F1280128837
S'25ce28e060fca8a0c35db2c9dcc03aa6'
tp196
a(S'/usr/include/boost/mpl/aux_/nested_type_wknd.hpp'
F1280128837
S'a21e2175f768b29919e15d843666e69e'
tp197
a(S'/usr/include/boost/mpl/aux_/nttp_decl.hpp'
F1280128837
S'3a2ccd100f621f8d226e32a53cb39066'
tp198
a(S'/usr/include/boost/mpl/aux_/numeric_cast_utils.hpp'
F1280128837
S'124ec2e504a56a85728076c475d0562c'
tp199
a(S'/usr/include/boost/mpl/aux_/numeric_op.hpp'
F1280128837
S'ad2737ccfe5b6d747a055fa8584e0f33'
tp200
a(S'/usr/include/boost/mpl/aux_/pop_front_impl.hpp'
F1280128837
S'aa3e2a560c842843eecd8266f2a24718'
tp201
a(S'/usr/include/boost/mpl/aux_/preprocessed/gcc/advance_backward.hpp'
F1280128841
S'9f795274625677a1628568e22e16562a'
tp202
a(S'/usr/include/boost/mpl/aux_/preprocessed/gcc/advance_forward.hpp'
F1280128841
S'58b0a25dc1b4a14bb9511442099cd32b'
tp203
a(S'/usr/include/boost/mpl/aux_/preprocessed/gcc/and.hpp'
F1280128841
S'3bf4e16d9cc2e5ec6980bbf13256558d'
tp204
a(S'/usr/include/boost/mpl/aux_/preprocessed/gcc/apply.hpp'
F1280128841
S'7890e0e14a6835d80e37a4d4cd7b5998'
tp205
a(S'/usr/include/boost/mpl/aux_/preprocessed/gcc/apply_fwd.hpp'
F1280128841
S'c6e8b844ca1009984fe7463fbb889580'
tp206
a(S'/usr/include/boost/mpl/aux_/preprocessed/gcc/apply_wrap.hpp'
F1280128841
S'a135f05f97ad9f253f46565a6955007a'
tp207
a(S'/usr/include/boost/mpl/aux_/preprocessed/gcc/arg.hpp'
F1280128841
S'35106aa7bc861bd47c76bf2674ae4ee9'
tp208
a(S'/usr/include/boost/mpl/aux_/preprocessed/gcc/bind.hpp'
F1280128841
S'006c39af316cfdd6dd2723ad85e4baad'
tp209
a(S'/usr/include/boost/mpl/aux_/preprocessed/gcc/bind_fwd.hpp'
F1280128841
S'8d5a052ec3ae0719f4e1ef3399866c2e'
tp210
a(S'/usr/include/boost/mpl/aux_/preprocessed/gcc/full_lambda.hpp'
F1280128841
S'8d2fa8289076a9d4cb316ad2b4f571e1'
tp211
a(S'/usr/include/boost/mpl/aux_/preprocessed/gcc/iter_fold_impl.hpp'
F1280128841
S'8cc7a691521ddb24f026492747c6c816'
tp212
a(S'/usr/include/boost/mpl/aux_/preprocessed/gcc/less.hpp'
F1280128841
S'1a6a7d67ce032a96f82a156d7c9fd7b1'
tp213
a(S'/usr/include/boost/mpl/aux_/preprocessed/gcc/minus.hpp'
F1280128841
S'2b4980dd0738795167efa0b3a270185c'
tp214
a(S'/usr/include/boost/mpl/aux_/preprocessed/gcc/or.hpp'
F1280128841
S'491a6285ac29532808473c4964b2fa85'
tp215
a(S'/usr/include/boost/mpl/aux_/preprocessed/gcc/placeholders.hpp'
F1280128841
S'97a4311febe151f3d8f0eb238dfebb03'
tp216
a(S'/usr/include/boost/mpl/aux_/preprocessed/gcc/plus.hpp'
F1280128841
S'1e48929884f08f0f45d05189fe2004cd'
tp217
a(S'/usr/include/boost/mpl/aux_/preprocessed/gcc/quote.hpp'
F1280128841
S'a612218d9f035941d076177a0cfc2ea1'
tp218
a(S'/usr/include/boost/mpl/aux_/preprocessed/gcc/template_arity.hpp'
F1280128841
S'12e04cbea6c3a386ab80cf9966030b85'
tp219
a(S'/usr/include/boost/mpl/aux_/preprocessor/def_params_tail.hpp'
F1280128840
S'57c1164a279b4332ea4ab241cdca9e70'
tp220
a(S'/usr/include/boost/mpl/aux_/preprocessor/enum.hpp'
F1280128840
S'094991b37c908e8dfedd0923a5a331f5'
tp221
a(S'/usr/include/boost/mpl/aux_/preprocessor/params.hpp'
F1280128840
S'd17c7afd5d0c5af51cbbedecbcdb06b6'
tp222
a(S'/usr/include/boost/mpl/aux_/push_front_impl.hpp'
F1280128837
S'10273d3c66dd284cc42d6f3d7796f057'
tp223
a(S'/usr/include/boost/mpl/aux_/single_element_iter.hpp'
F1280128837
S'179f49328a574f6a0bf19350c3a35e47'
tp224
a(S'/usr/include/boost/mpl/aux_/size_impl.hpp'
F1280128837
S'474836db042428ad8275e6fbc77e846a'
tp225
a(S'/usr/include/boost/mpl/aux_/static_cast.hpp'
F1280128837
S'2a763eb642e5c83d2484e016b4858919'
tp226
a(S'/usr/include/boost/mpl/aux_/template_arity.hpp'
F1280128837
S'1e4ede90afdfa808a1df501bb371e4e6'
tp227
a(S'/usr/include/boost/mpl/aux_/template_arity_fwd.hpp'
F1280128837
S'0954bf1644a18948421992639cb33f51'
tp228
a(S'/usr/include/boost/mpl/aux_/traits_lambda_spec.hpp'
F1280128837
S'05fe7f2f45ea70afe7d53f737596fb1c'
tp229
a(S'/usr/include/boost/mpl/aux_/type_wrapper.hpp'
F1280128837
S'e4afb2bde8bd7c458c06176c5cc61951'
tp230
a(S'/usr/include/boost/mpl/aux_/unwrap.hpp'
F1280128837
S'a30133be03cd957e73aac18feea13111'
tp231
a(S'/usr/include/boost/mpl/aux_/value_wknd.hpp'
F1280128837
S'56d30b89bb86cf6c9d5779a2eb5d1b0e'
tp232
a(S'/usr/include/boost/mpl/aux_/yes_no.hpp'
F1280128837
S'48a1f5df094301bc7ae94c7d16e7493e'
tp233
a(S'/usr/include/boost/mpl/back.hpp'
F1280128832
S'553fc86ab19301b5c41299e3231bc085'
tp234
a(S'/usr/include/boost/mpl/back_fwd.hpp'
F1280128832
S'2bb7684e1754e05c3c14e4b26efb5cf4'
tp235
a(S'/usr/include/boost/mpl/begin_end.hpp'
F1280128832
S'38d531d62978ecbbf84bc561c7b12645'
tp236
a(S'/usr/include/boost/mpl/begin_end_fwd.hpp'
F1280128833
S'c074e8cf2bcd39e93a667100fb9df306'
tp237
a(S'/usr/include/boost/mpl/bind.hpp'
F1280128832
S'edc8dc1d07fa3183aebf08ec6b2c6d5d'
tp238
a(S'/usr/include/boost/mpl/bind_fwd.hpp'
F1280128833
S'a4eee18e0f31277892939d227a1e574e'
tp239
a(S'/usr/include/boost/mpl/bool.hpp'
F1280128833
S'ce52977a40f9fb77c29bb2d39f2752f0'
tp240
a(S'/usr/include/boost/mpl/bool_fwd.hpp'
F1280128833
S'f7d41a90d6ee89475983f2dda10c15a5'
tp241
a(S'/usr/include/boost/mpl/clear_fwd.hpp'
F1280128833
S'8d79b9ff0ead9452b53cb83e82b672c7'
tp242
a(S'/usr/include/boost/mpl/deref.hpp'
F1280128833
S'77dc1c7954fe9872f1c218fef2d1e096'
tp243
a(S'/usr/include/boost/mpl/distance.hpp'
F1280128833
S'ad665f5ba5f6aa7e9949af9b7e6e1a1c'
tp244
a(S'/usr/include/boost/mpl/distance_fwd.hpp'
F1280128833
S'9f369c7b078fd366c994194d6705f212'
tp245
a(S'/usr/include/boost/mpl/empty.hpp'
F1280128833
S'a61e7280825a4f116c38ec0f991acc46'
tp246
a(S'/usr/include/boost/mpl/empty_fwd.hpp'
F1280128832
S'75438e9be868a17b2ba72ab80e735746'
tp247
a(S'/usr/include/boost/mpl/eval_if.hpp'
F1280128832
S'6b8ce0847fdab8c611199ab0eb8220da'
tp248
a(S'/usr/include/boost/mpl/for_each.hpp'
F1280128832
S'49c671acb7526cec4f282eedd17a82de'
tp249
a(S'/usr/include/boost/mpl/front.hpp'
F1280128833
S'7329712fb89534873fdec88a829b2a65'
tp250
a(S'/usr/include/boost/mpl/front_fwd.hpp'
F1280128833
S'b062a52ac4f7e1baa405c6909684875f'
tp251
a(S'/usr/include/boost/mpl/has_xxx.hpp'
F1280128833
S'bd2cca5980e2c01dec70c4a8f08ffbb0'
tp252
a(S'/usr/include/boost/mpl/identity.hpp'
F1280128833
S'fc620cca472437d0048c4b1a5b8d3969'
tp253
a(S'/usr/include/boost/mpl/if.hpp'
F1280128833
S'9409416f7ec152c2618605cab5add785'
tp254
a(S'/usr/include/boost/mpl/int.hpp'
F1280128832
S'53ad6571bb21e93f0e0748eddff126f6'
tp255
a(S'/usr/include/boost/mpl/int_fwd.hpp'
F1280128832
S'067a2f3cda3392770ed74065bc64e7e3'
tp256
a(S'/usr/include/boost/mpl/integral_c.hpp'
F1280128833
S'581ef64e0795604942954ddcb916fcc8'
tp257
a(S'/usr/include/boost/mpl/integral_c_fwd.hpp'
F1280128832
S'b0d0b7c6c9e1f1d5a87b11c1486d3200'
tp258
a(S'/usr/include/boost/mpl/integral_c_tag.hpp'
F1280128832
S'07de82012dfb310a6f4179a0fbbfb6f9'
tp259
a(S'/usr/include/boost/mpl/is_sequence.hpp'
F1280128833
S'75219e70002828c242797dd688f67067'
tp260
a(S'/usr/include/boost/mpl/iter_fold.hpp'
F1280128833
S'1321cbd4833da5c7451cf326c7f4040f'
tp261
a(S'/usr/include/boost/mpl/iterator_range.hpp'
F1280128832
S'cd84a980a6688f33b016191c6aabefde'
tp262
a(S'/usr/include/boost/mpl/iterator_tags.hpp'
F1280128832
S'af77ddc156dca5d1b288d764c84d47ca'
tp263
a(S'/usr/include/boost/mpl/joint_view.hpp'
F1280128833
S'e91b2ebc9cc4a28eefc70adcd0bf06da'
tp264
a(S'/usr/include/boost/mpl/lambda.hpp'
F1280128832
S'ad3d4b66a0709dd6d9df62bcfa3692e7'
tp265
a(S'/usr/include/boost/mpl/lambda_fwd.hpp'
F1280128832
S'8250a4d3c1f0ee14baf4c0ea3348a241'
tp266
a(S'/usr/include/boost/mpl/less.hpp'
F1280128833
S'b1138650bbe5b8fbcb4a8da4efffc72e'
tp267
a(S'/usr/include/boost/mpl/limits/arity.hpp'
F1280128837
S'535d1238505cf268d84b4bbeda91f1fa'
tp268
a(S'/usr/include/boost/mpl/long.hpp'
F1280128832
S'2dd7ad4bbbead5074286eff59f5b4131'
tp269
a(S'/usr/include/boost/mpl/long_fwd.hpp'
F1280128833
S'7e643b5d9ad85327d8a05ddadbbf5486'
tp270
a(S'/usr/include/boost/mpl/minus.hpp'
F1280128833
S'356665ffd13d8a3db910fd016f4f1ce4'
tp271
a(S'/usr/include/boost/mpl/negate.hpp'
F1280128832
S'64f14ad744cf3220e5bbb5b429c73cad'
tp272
a(S'/usr/include/boost/mpl/next.hpp'
F1280128833
S'566fa5c27456fda8a431962f66611f92'
tp273
a(S'/usr/include/boost/mpl/next_prior.hpp'
F1280128833
S'6e4c396a374c21c2a3f317af1bb9202b'
tp274
a(S'/usr/include/boost/mpl/not.hpp'
F1280128833
S'0edf1deffa2e7db9b95d4fa65d078469'
tp275
a(S'/usr/include/boost/mpl/numeric_cast.hpp'
F1280128832
S'00dcbfbff4cf2117a12b866bc2691eb9'
tp276
a(S'/usr/include/boost/mpl/or.hpp'
F1280128832
S'7f3c729ed35489f1339730eff8ba72ea'
tp277
a(S'/usr/include/boost/mpl/placeholders.hpp'
F1280128833
S'3a46437f04699612a71be5d29c5667c2'
tp278
a(S'/usr/include/boost/mpl/plus.hpp'
F1280128832
S'305e198e9ab2716d77a4ad944850ca14'
tp279
a(S'/usr/include/boost/mpl/pop_back_fwd.hpp'
F1280128833
S'e4119b9028f6c5db863a90e0a01099ae'
tp280
a(S'/usr/include/boost/mpl/pop_front.hpp'
F1280128833
S'b679233adf045dfc0f70031858f29e3b'
tp281
a(S'/usr/include/boost/mpl/pop_front_fwd.hpp'
F1280128833
S'db5da87c9bf92b724dd0a4a099fd9774'
tp282
a(S'/usr/include/boost/mpl/prior.hpp'
F1280128832
S'1a42793db07d152b115af77f85326a87'
tp283
a(S'/usr/include/boost/mpl/protect.hpp'
F1280128832
S'2939618abca8b8d7992c5d4d84c9abdf'
tp284
a(S'/usr/include/boost/mpl/push_back_fwd.hpp'
F1280128833
S'c475e7856d981cf8cdd42ac18bfbf646'
tp285
a(S'/usr/include/boost/mpl/push_front.hpp'
F1280128833
S'a635c6dfb84baeed4338d74d6c89b2cf'
tp286
a(S'/usr/include/boost/mpl/push_front_fwd.hpp'
F1280128832
S'408acb487c36ff3b16d6a911673b0038'
tp287
a(S'/usr/include/boost/mpl/quote.hpp'
F1280128832
S'99690dd19d2aa21618f7063016d4787e'
tp288
a(S'/usr/include/boost/mpl/sequence_tag.hpp'
F1280128833
S'4bdb7b0862ef2c11a26f700b1803580d'
tp289
a(S'/usr/include/boost/mpl/sequence_tag_fwd.hpp'
F1280128833
S'3979915284b8d3d497f24fa039f42dc5'
tp290
a(S'/usr/include/boost/mpl/single_view.hpp'
F1280128833
S'e0aaaa048453f13662a3ef51047a6f48'
tp291
a(S'/usr/include/boost/mpl/size.hpp'
F1280128833
S'497319bf039b91bdea565dcffa77cd8d'
tp292
a(S'/usr/include/boost/mpl/size_fwd.hpp'
F1280128833
S'06a52f6818eb5c6a8d5886d2eb81bdf7'
tp293
a(S'/usr/include/boost/mpl/size_t.hpp'
F1280128833
S'c8cadad43e45bfba01fcbf0eb6126daa'
tp294
a(S'/usr/include/boost/mpl/size_t_fwd.hpp'
F1280128833
S'97cec1151a882f2d2a30398976b54e1e'
tp295
a(S'/usr/include/boost/mpl/tag.hpp'
F1280128833
S'a47902a2aa0f33594988737e39f4a0cb'
tp296
a(S'/usr/include/boost/mpl/vector/aux_/O1_size.hpp'
F1280128840
S'70c17a900993fba1fa30aebab15e9600'
tp297
a(S'/usr/include/boost/mpl/vector/aux_/at.hpp'
F1280128840
S'9bf06ba435502b514c945c28cbd5a722'
tp298
a(S'/usr/include/boost/mpl/vector/aux_/back.hpp'
F1280128840
S'd5f8ef04b25cd9c3b5e3643e18bd7d2f'
tp299
a(S'/usr/include/boost/mpl/vector/aux_/begin_end.hpp'
F1280128840
S'd14743546fc8d284dcea416dac5f622e'
tp300
a(S'/usr/include/boost/mpl/vector/aux_/clear.hpp'
F1280128840
S'8e42f1a26cefbfe0b77fea1c04bd2f01'
tp301
a(S'/usr/include/boost/mpl/vector/aux_/empty.hpp'
F1280128840
S'a7a8ca49ec883a94a697d7431f371358'
tp302
a(S'/usr/include/boost/mpl/vector/aux_/front.hpp'
F1280128840
S'31962bda7b778ca1c68f7a38da3e15f7'
tp303
a(S'/usr/include/boost/mpl/vector/aux_/include_preprocessed.hpp'
F1280128840
S'2018a12dda5e0e4f981e36557f6d50d3'
tp304
a(S'/usr/include/boost/mpl/vector/aux_/item.hpp'
F1280128840
S'cf8cd15b122ee96141fd74a4e36d0bf6'
tp305
a(S'/usr/include/boost/mpl/vector/aux_/iterator.hpp'
F1280128840
S'5024164f831db06f952f383c7cf4f6b3'
tp306
a(S'/usr/include/boost/mpl/vector/aux_/pop_back.hpp'
F1280128840
S'ec0e17862ef54f2fc390ac2681ec2d36'
tp307
a(S'/usr/include/boost/mpl/vector/aux_/pop_front.hpp'
F1280128840
S'491a10715b81fb983d48be78737aa47b'
tp308
a(S'/usr/include/boost/mpl/vector/aux_/preprocessed/typeof_based/vector10.hpp'
F1280128842
S'e6da94be88ae4c2b3dc7c40fd4dae16c'
tp309
a(S'/usr/include/boost/mpl/vector/aux_/preprocessed/typeof_based/vector20.hpp'
F1280128842
S'2217753233aec0d6f8ea41597697b38f'
tp310
a(S'/usr/include/boost/mpl/vector/aux_/push_back.hpp'
F1280128840
S'5b89a54a7ac0cf6d581ca19279b2f470'
tp311
a(S'/usr/include/boost/mpl/vector/aux_/push_front.hpp'
F1280128840
S'8d7db1e992b355ecbd1b8ea59debf96b'
tp312
a(S'/usr/include/boost/mpl/vector/aux_/size.hpp'
F1280128840
S'3c4b584922ecb64359b9f2b2a4e11d91'
tp313
a(S'/usr/include/boost/mpl/vector/aux_/tag.hpp'
F1280128840
S'90730536116e9f3dcc91ebbfe18bfe50'
tp314
a(S'/usr/include/boost/mpl/vector/aux_/vector0.hpp'
F1280128840
S'fcf7119b5f23b12ae216096e90921de3'
tp315
a(S'/usr/include/boost/mpl/vector/vector0.hpp'
F1280128837
S'6e1ab823c035c74576a7db6e588477ca'
tp316
a(S'/usr/include/boost/mpl/vector/vector10.hpp'
F1280128837
S'35bfe0c1159dbc01d293d34d2e0df231'
tp317
a(S'/usr/include/boost/mpl/vector/vector20.hpp'
F1280128837
S'ba8f2f457d9fbdd884bcd5073e30a24f'
tp318
a(S'/usr/include/boost/mpl/void.hpp'
F1280128832
S'5fe6e0a90497b87a670d38090d047637'
tp319
a(S'/usr/include/boost/mpl/void_fwd.hpp'
F1280128832
S'1c612df584cdbad68dc23ac02eb51783'
tp320
a(S'/usr/include/boost/next_prior.hpp'
F1280128830
S'069ebfddfefe345e7f8735094f2804ec'
tp321
a(S'/usr/include/boost/noncopyable.hpp'
F1280128830
S'3e704fc343b05e7287bed7d572f7611e'
tp322
a(S'/usr/include/boost/operators.hpp'
F1280128830
S'f18dee257728b6b71fefc07bc3b96c98'
tp323
a(S'/usr/include/boost/preprocessor/arithmetic/add.hpp'
F1280128837
S'e9bfc1d1607837c348771a0b9282e2d7'
tp324
a(S'/usr/include/boost/preprocessor/arithmetic/dec.hpp'
F1280128837
S'8f3bd93d7e5fa25348434d5a455f5525'
tp325
a(S'/usr/include/boost/preprocessor/arithmetic/detail/div_base.hpp'
F1280128840
S'9718f91ea4369d05d012b77191f0948f'
tp326
a(S'/usr/include/boost/preprocessor/arithmetic/inc.hpp'
F1280128837
S'6f117b5c7ec1b1b7344b3c2a7c5ac7bc'
tp327
a(S'/usr/include/boost/preprocessor/arithmetic/mod.hpp'
F1280128837
S'da03a60635d1bd20e7ff9c7b610a3b3e'
tp328
a(S'/usr/include/boost/preprocessor/arithmetic/sub.hpp'
F1280128837
S'7bbbd8df86d5637aa5f01f077aa59b7b'
tp329
a(S'/usr/include/boost/preprocessor/array/data.hpp'
F1280128837
S'7a63b371843275f51dc81e4bc3d56a99'
tp330
a(S'/usr/include/boost/preprocessor/array/elem.hpp'
F1280128837
S'f9bcbcce3b35895de8ee1e5131566cb4'
tp331
a(S'/usr/include/boost/preprocessor/array/size.hpp'
F1280128837
S'768ce441425b38283761dc7b403519ab'
tp332
a(S'/usr/include/boost/preprocessor/cat.hpp'
F1280128833
S'c1a92b1ee306624ad6eb5280e22230d3'
tp333
a(S'/usr/include/boost/preprocessor/comma_if.hpp'
F1280128833
S'd31906f0d2bd78b39fc521c23d00c227'
tp334
a(S'/usr/include/boost/preprocessor/comparison/less_equal.hpp'
F1280128837
S'05045ce47265d1d3cd03e600f826afc3'
tp335
a(S'/usr/include/boost/preprocessor/config/config.hpp'
F1280128837
S'6d8a3929785e10e9e0c3d0b978e04c20'
tp336
a(S'/usr/include/boost/preprocessor/control/deduce_d.hpp'
F1280128837
S'715272edfcd08cfbab9fd9b3e2b28071'
tp337
a(S'/usr/include/boost/preprocessor/control/detail/while.hpp'
F1280128840
S'4498bbc689afbf27ab153424ae2e87da'
tp338
a(S'/usr/include/boost/preprocessor/control/expr_iif.hpp'
F1280128837
S'0ef3c92043676b8089439fb3edc2046c'
tp339
a(S'/usr/include/boost/preprocessor/control/if.hpp'
F1280128837
S'ecb858106289ac690c0fc3d053586299'
tp340
a(S'/usr/include/boost/preprocessor/control/iif.hpp'
F1280128837
S'fb1262f21d23575c5a7152386fb0acf9'
tp341
a(S'/usr/include/boost/preprocessor/control/while.hpp'
F1280128837
S'19388f0999c3acb783f3cd0df4aa59a2'
tp342
a(S'/usr/include/boost/preprocessor/debug/error.hpp'
F1280128837
S'f6f2586fbcd909e05c45f9c627fdeadc'
tp343
a(S'/usr/include/boost/preprocessor/debug/line.hpp'
F1280128837
S'b119a226528e71d74571f7081d1c7c04'
tp344
a(S'/usr/include/boost/preprocessor/dec.hpp'
F1280128833
S'9241c2f00950073966e6a6a4a5d2714e'
tp345
a(S'/usr/include/boost/preprocessor/detail/auto_rec.hpp'
F1280128837
S'6a3e659103ab9a8accf52a2fdd1489be'
tp346
a(S'/usr/include/boost/preprocessor/detail/check.hpp'
F1280128837
S'c13b74ed39159c8a76d45dd42a2d754a'
tp347
a(S'/usr/include/boost/preprocessor/detail/is_binary.hpp'
F1280128837
S'732e328af235088edf05242435e4beb0'
tp348
a(S'/usr/include/boost/preprocessor/empty.hpp'
F1280128833
S'6df67eac37a1aff760ef6e3e39236dda'
tp349
a(S'/usr/include/boost/preprocessor/enum.hpp'
F1280128833
S'75c99d967ab2fc08a4b91ccced0f6f0e'
tp350
a(S'/usr/include/boost/preprocessor/enum_params.hpp'
F1280128833
S'117015ff5769ccb0a99bfc7f4d1f1417'
tp351
a(S'/usr/include/boost/preprocessor/enum_params_with_a_default.hpp'
F1280128833
S'ed86a4207cb84db7ee4dee78b05c7e41'
tp352
a(S'/usr/include/boost/preprocessor/facilities/empty.hpp'
F1280128837
S'e1bc523c6ea399bf96dc14a9078cea5e'
tp353
a(S'/usr/include/boost/preprocessor/facilities/identity.hpp'
F1280128837
S'3ad906b8a64ed93ec9640886090f814d'
tp354
a(S'/usr/include/boost/preprocessor/facilities/intercept.hpp'
F1280128837
S'036abbad9b476697c1d4bfc9503e22fc'
tp355
a(S'/usr/include/boost/preprocessor/identity.hpp'
F1280128833
S'e66b1276a530137ef9e287f4b4d78b0c'
tp356
a(S'/usr/include/boost/preprocessor/if.hpp'
F1280128833
S'15a3672c26d7c633ee33f8073e9efa01'
tp357
a(S'/usr/include/boost/preprocessor/inc.hpp'
F1280128833
S'30c2efe343e392bf8e965272d7208fca'
tp358
a(S'/usr/include/boost/preprocessor/iterate.hpp'
F1280128833
S'35ffccd9c716d7c792c714855ef41df3'
tp359
a(S'/usr/include/boost/preprocessor/iteration/detail/bounds/lower1.hpp'
F1280128842
S'937d6b9e517b113603062a3af9c02878'
tp360
a(S'/usr/include/boost/preprocessor/iteration/detail/bounds/lower2.hpp'
F1280128842
S'7b29468cc3fb15b11ca34d8e4c68663f'
tp361
a(S'/usr/include/boost/preprocessor/iteration/detail/bounds/upper1.hpp'
F1280128842
S'd8e2bef9dc62b54c6581dc5541b2afd2'
tp362
a(S'/usr/include/boost/preprocessor/iteration/detail/bounds/upper2.hpp'
F1280128842
S'5d89975224741b7b0fd6407f85ff0f4e'
tp363
a(S'/usr/include/boost/preprocessor/iteration/detail/iter/forward1.hpp'
F1280128842
S'7e97597767f0de9f8c323c3346b9d26a'
tp364
a(S'/usr/include/boost/preprocessor/iteration/detail/iter/forward2.hpp'
F1280128842
S'ce6c767e15626efa09716b93bb1c5221'
tp365
a(S'/usr/include/boost/preprocessor/iteration/detail/local.hpp'
F1280128840
S'72c286b4472b5b24720af173b928ac63'
tp366
a(S'/usr/include/boost/preprocessor/iteration/iterate.hpp'
F1280128837
S'84c3e3cc61ebb150fcfbca52cdc41647'
tp367
a(S'/usr/include/boost/preprocessor/iteration/local.hpp'
F1280128837
S'1721ef396c2e293fac347335bdfb2d97'
tp368
a(S'/usr/include/boost/preprocessor/list/adt.hpp'
F1280128837
S'e3286faa7485d785c5ed8bf008cc8a22'
tp369
a(S'/usr/include/boost/preprocessor/list/append.hpp'
F1280128837
S'e04929b6f0ba361aca61f17ae05c7370'
tp370
a(S'/usr/include/boost/preprocessor/list/detail/fold_left.hpp'
F1280128840
S'3826af218d055eb5db9aadbd57374b0d'
tp371
a(S'/usr/include/boost/preprocessor/list/detail/fold_right.hpp'
F1280128840
S'9ec5870eb9372c374efc6be8cf98d71c'
tp372
a(S'/usr/include/boost/preprocessor/list/fold_left.hpp'
F1280128837
S'1432f1e0fa9a429b254a5f40be20db41'
tp373
a(S'/usr/include/boost/preprocessor/list/fold_right.hpp'
F1280128837
S'd5a853384502a130649350513a7ca437'
tp374
a(S'/usr/include/boost/preprocessor/list/for_each_i.hpp'
F1280128837
S'347667ca4dfa6731b1f1dc97945aee77'
tp375
a(S'/usr/include/boost/preprocessor/list/reverse.hpp'
F1280128837
S'6ee57904b8cb05ef6a0e138416351800'
tp376
a(S'/usr/include/boost/preprocessor/list/transform.hpp'
F1280128837
S'508aadb677ad1312a96580e574a750e4'
tp377
a(S'/usr/include/boost/preprocessor/logical/and.hpp'
F1280128837
S'c424e47cd5f83031bbf237bdcc4bc66a'
tp378
a(S'/usr/include/boost/preprocessor/logical/bitand.hpp'
F1280128837
S'fe68ba12b55c1ba72bb8cb684241f73d'
tp379
a(S'/usr/include/boost/preprocessor/logical/bool.hpp'
F1280128837
S'040a0be3fe72baadafa53082245bedde'
tp380
a(S'/usr/include/boost/preprocessor/logical/compl.hpp'
F1280128837
S'1a1f40a6fb640dade6679949c12bf963'
tp381
a(S'/usr/include/boost/preprocessor/logical/not.hpp'
F1280128837
S'8e9d440fcadc6590302da216fce64888'
tp382
a(S'/usr/include/boost/preprocessor/punctuation/comma.hpp'
F1280128837
S'937874ceba924b1b5a1e8a43a5ca9835'
tp383
a(S'/usr/include/boost/preprocessor/punctuation/comma_if.hpp'
F1280128837
S'5278975e3647f6e4e1d4dceff53cd45b'
tp384
a(S'/usr/include/boost/preprocessor/repeat.hpp'
F1280128833
S'ced35da1dc9b6cdac8908e202cb477d8'
tp385
a(S'/usr/include/boost/preprocessor/repeat_from_to.hpp'
F1280128833
S'49926c5732601867d1083f5f6bfe404f'
tp386
a(S'/usr/include/boost/preprocessor/repetition/detail/for.hpp'
F1280128840
S'b72f761378f0e7dca1dddf4973d634f6'
tp387
a(S'/usr/include/boost/preprocessor/repetition/enum.hpp'
F1280128837
S'ae9a12293f07371a8d8bff22c366a889'
tp388
a(S'/usr/include/boost/preprocessor/repetition/enum_binary_params.hpp'
F1280128837
S'75b8de290d21904b8d2e87e4762b11ba'
tp389
a(S'/usr/include/boost/preprocessor/repetition/enum_params.hpp'
F1280128837
S'0c7667188508b7038aa3dd164415416d'
tp390
a(S'/usr/include/boost/preprocessor/repetition/enum_params_with_a_default.hpp'
F1280128837
S'0abe0b5d877f38b2abde544fbb881977'
tp391
a(S'/usr/include/boost/preprocessor/repetition/enum_trailing.hpp'
F1280128837
S'1d3d14bdd70646871b950ace1362ebf7'
tp392
a(S'/usr/include/boost/preprocessor/repetition/enum_trailing_binary_params.hpp'
F1280128837
S'e9d9888ab3aa256fd4fcb075a1e4689f'
tp393
a(S'/usr/include/boost/preprocessor/repetition/enum_trailing_params.hpp'
F1280128837
S'7c0deea8f6c787d6a90a7a262ded6314'
tp394
a(S'/usr/include/boost/preprocessor/repetition/for.hpp'
F1280128837
S'ac5c544a3b1acd30fc51cd104f74345c'
tp395
a(S'/usr/include/boost/preprocessor/repetition/repeat.hpp'
F1280128837
S'86d0a944a3d0c987886dc8e313f3cf29'
tp396
a(S'/usr/include/boost/preprocessor/repetition/repeat_from_to.hpp'
F1280128837
S'ec642e5e14118a8acfb0bc9ce12d1cc1'
tp397
a(S'/usr/include/boost/preprocessor/seq/cat.hpp'
F1280128837
S'd1e01d3a7206f37e5e354ea37b9952fe'
tp398
a(S'/usr/include/boost/preprocessor/seq/elem.hpp'
F1280128837
S'34a59aedab1eab729b8a499b62d9f657'
tp399
a(S'/usr/include/boost/preprocessor/seq/fold_left.hpp'
F1280128837
S'0ff1fb85384a56fa8d0783d38c451f43'
tp400
a(S'/usr/include/boost/preprocessor/seq/seq.hpp'
F1280128837
S'de7f3aad744e7df2767319e73919d87a'
tp401
a(S'/usr/include/boost/preprocessor/seq/size.hpp'
F1280128837
S'61b675c9d2fd1fde61cbcdfe01141269'
tp402
a(S'/usr/include/boost/preprocessor/seq/transform.hpp'
F1280128837
S'2820a9ae5d01df1bda31afc92e5889e3'
tp403
a(S'/usr/include/boost/preprocessor/slot/detail/def.hpp'
F1280128840
S'40acd85674118aca265439ef9ac376d4'
tp404
a(S'/usr/include/boost/preprocessor/slot/detail/shared.hpp'
F1280128840
S'bd26bec84ef70cc47f3f7c21be85cf0d'
tp405
a(S'/usr/include/boost/preprocessor/slot/slot.hpp'
F1280128837
S'd1b20c89843030beb03b0cfdaa0f41a5'
tp406
a(S'/usr/include/boost/preprocessor/stringize.hpp'
F1280128833
S'bd6e601aeb33818d1171acdf8544b028'
tp407
a(S'/usr/include/boost/preprocessor/tuple.hpp'
F1280128833
S'2cd858fe1e244b9c8389bd4b7ed54c21'
tp408
a(S'/usr/include/boost/preprocessor/tuple/eat.hpp'
F1280128837
S'5e4fb073e14a7123b0c9d4de9fa6ec33'
tp409
a(S'/usr/include/boost/preprocessor/tuple/elem.hpp'
F1280128837
S'e94530240bea32b3b648bf219942d80e'
tp410
a(S'/usr/include/boost/preprocessor/tuple/rem.hpp'
F1280128837
S'f895f97cbd3d30b02aabf03cda4c26a4'
tp411
a(S'/usr/include/boost/preprocessor/tuple/reverse.hpp'
F1280128837
S'bb7d70ce39425b3a0f5c91f549b901f8'
tp412
a(S'/usr/include/boost/preprocessor/tuple/to_list.hpp'
F1280128837
S'70caa599630bb069c378141148a296b4'
tp413
a(S'/usr/include/boost/preprocessor/tuple/to_seq.hpp'
F1280128837
S'c232a7bfb0a6c31ecc0f51693c00e51c'
tp414
a(S'/usr/include/boost/python.hpp'
F1280128830
S'9e87c78821220a4142338ac78d42a004'
tp415
a(S'/usr/include/boost/python/arg_from_python.hpp'
F1280128831
S'097a80841f0241e8bf8f819f08c5c821'
tp416
a(S'/usr/include/boost/python/args.hpp'
F1280128831
S'408f75457bfc728b54a8c3e1900a5283'
tp417
a(S'/usr/include/boost/python/args_fwd.hpp'
F1280128831
S'acdf1e840f1929e81f3810c279f9150e'
tp418
a(S'/usr/include/boost/python/back_reference.hpp'
F1280128831
S'729873d2aeb5137c45c126e4b0399a57'
tp419
a(S'/usr/include/boost/python/base_type_traits.hpp'
F1280128831
S'45a72e57615ffa778af39267ec6c245e'
tp420
a(S'/usr/include/boost/python/bases.hpp'
F1280128831
S'4f8976784ab17896dc38b7f1859b5da1'
tp421
a(S'/usr/include/boost/python/borrowed.hpp'
F1280128831
S'1d1c4b668be70c61b549675b4868f724'
tp422
a(S'/usr/include/boost/python/call.hpp'
F1280128831
S'e8520e70a5c405e72a53dc68ee2caca8'
tp423
a(S'/usr/include/boost/python/call_method.hpp'
F1280128831
S'69e323e02af798774af7f96e4f2c106d'
tp424
a(S'/usr/include/boost/python/cast.hpp'
F1280128831
S'1164d50e35c038f4a976323ed0c341ec'
tp425
a(S'/usr/include/boost/python/class.hpp'
F1280128831
S'9e5112b9faf134eab619f1ca8b745aba'
tp426
a(S'/usr/include/boost/python/class_fwd.hpp'
F1280128831
S'8d53306ce9bdf5e01d3a6671201d08e1'
tp427
a(S'/usr/include/boost/python/converter/arg_from_python.hpp'
F1280128834
S'2152bc79b879498398c9f4b67c6e3d06'
tp428
a(S'/usr/include/boost/python/converter/arg_to_python.hpp'
F1280128834
S'bc913afa18f6526ae3b73e265f03e8e4'
tp429
a(S'/usr/include/boost/python/converter/arg_to_python_base.hpp'
F1280128834
S'18a1b5bfee67c8a3f499c11250f2c41a'
tp430
a(S'/usr/include/boost/python/converter/as_to_python_function.hpp'
F1280128834
S'f2da5280365fce0383af93a186f4ec0e'
tp431
a(S'/usr/include/boost/python/converter/builtin_converters.hpp'
F1280128834
S'8ede1b5ec323f98c7b044207f33507a1'
tp432
a(S'/usr/include/boost/python/converter/constructor_function.hpp'
F1280128834
S'124d95f96c28906f3ea3acfa6872db4f'
tp433
a(S'/usr/include/boost/python/converter/context_result_converter.hpp'
F1280128834
S'cf425c2c6524a9fed42c83b1efa6a994'
tp434
a(S'/usr/include/boost/python/converter/convertible_function.hpp'
F1280128834
S'87608017b0a7178a114c43412b66e297'
tp435
a(S'/usr/include/boost/python/converter/from_python.hpp'
F1280128834
S'285fda048bc618130eefe2933a095084'
tp436
a(S'/usr/include/boost/python/converter/implicit.hpp'
F1280128834
S'b30b1dc0a190376965c163c77e43691c'
tp437
a(S'/usr/include/boost/python/converter/obj_mgr_arg_from_python.hpp'
F1280128834
S'8be9026b53ac7639713dd0eb47304174'
tp438
a(S'/usr/include/boost/python/converter/object_manager.hpp'
F1280128834
S'9afef2f8bcbdb45ffcbb33cf7f28bb3c'
tp439
a(S'/usr/include/boost/python/converter/pointer_type_id.hpp'
F1280128834
S'2dd0843a9559eff4b848dd583d94aa51'
tp440
a(S'/usr/include/boost/python/converter/pyobject_traits.hpp'
F1280128834
S'9d29482f4b4676430bfcd1894e7213a8'
tp441
a(S'/usr/include/boost/python/converter/pyobject_type.hpp'
F1280128834
S'71fc87ad2e1010e584bceaf64eef9779'
tp442
a(S'/usr/include/boost/python/converter/pytype_function.hpp'
F1280128834
S'5a6b7a5a06c6cf0e34fdaa1b61f488a5'
tp443
a(S'/usr/include/boost/python/converter/pytype_object_mgr_traits.hpp'
F1280128834
S'f111c93265a507e963388d816b6f0130'
tp444
a(S'/usr/include/boost/python/converter/registered.hpp'
F1280128834
S'f5d03864c89950e1da0e4a3e2ea10a05'
tp445
a(S'/usr/include/boost/python/converter/registered_pointee.hpp'
F1280128834
S'fdf8b8567e2e24d355f145fdd224be9c'
tp446
a(S'/usr/include/boost/python/converter/registrations.hpp'
F1280128834
S'7f9e3edcd433f28d55c294492ab0cd35'
tp447
a(S'/usr/include/boost/python/converter/registry.hpp'
F1280128834
S'9160f29391ad2945cbfeac7778310084'
tp448
a(S'/usr/include/boost/python/converter/return_from_python.hpp'
F1280128834
S'bb5bd5d7833fd08f349dcccb5a8dc14d'
tp449
a(S'/usr/include/boost/python/converter/rvalue_from_python_data.hpp'
F1280128834
S'38e7dd3a263529584e210fc6a96006b2'
tp450
a(S'/usr/include/boost/python/converter/shared_ptr_deleter.hpp'
F1280128834
S'5a54a73d003d503eab902c1f0265193e'
tp451
a(S'/usr/include/boost/python/converter/shared_ptr_from_python.hpp'
F1280128834
S'ad405d0e99705610e7bd09a25ad03b2c'
tp452
a(S'/usr/include/boost/python/converter/shared_ptr_to_python.hpp'
F1280128834
S'd3d07e16e56d55068215215bd642834a'
tp453
a(S'/usr/include/boost/python/converter/to_python_function_type.hpp'
F1280128834
S'ce9407e5370fbdba1df5faeddbdcf161'
tp454
a(S'/usr/include/boost/python/copy_const_reference.hpp'
F1280128831
S'7d09861d1607212f952c059cb1b2ca54'
tp455
a(S'/usr/include/boost/python/copy_non_const_reference.hpp'
F1280128831
S'47a23d91e4a12c8be7e5bd3a19d4979e'
tp456
a(S'/usr/include/boost/python/data_members.hpp'
F1280128831
S'4e81ae25c4b1b137d659202e413987d0'
tp457
a(S'/usr/include/boost/python/def.hpp'
F1280128831
S'1796a92bdf331b52657304579ed47b07'
tp458
a(S'/usr/include/boost/python/def_visitor.hpp'
F1280128831
S'ca2dc06237b4b85ad620af58e58336a3'
tp459
a(S'/usr/include/boost/python/default_call_policies.hpp'
F1280128831
S'eb16b32ae1b91d344547b00528882e2d'
tp460
a(S'/usr/include/boost/python/detail/borrowed_ptr.hpp'
F1280128834
S'0473b78c364f8596b3b514a2c499ef69'
tp461
a(S'/usr/include/boost/python/detail/caller.hpp'
F1280128834
S'6988dd6427aaf9af4cb4872b36768180'
tp462
a(S'/usr/include/boost/python/detail/config.hpp'
F1280128834
S'c583e551a826a5d1fbd2bc0c61469f38'
tp463
a(S'/usr/include/boost/python/detail/construct.hpp'
F1280128834
S'cec3fba59169e4a7dc4a6b97efce1a2b'
tp464
a(S'/usr/include/boost/python/detail/convertible.hpp'
F1280128834
S'4033c5977b6526cf2388e33ad5c9005e'
tp465
a(S'/usr/include/boost/python/detail/copy_ctor_mutates_rhs.hpp'
F1280128834
S'5c43ff070f222625b79a25babbdfe1a3'
tp466
a(S'/usr/include/boost/python/detail/cv_category.hpp'
F1280128834
S'50e36fda60551b90d46f0b33bbb6244e'
tp467
a(S'/usr/include/boost/python/detail/dealloc.hpp'
F1280128834
S'593b1f818037888a57f82698c9fe273f'
tp468
a(S'/usr/include/boost/python/detail/decref_guard.hpp'
F1280128834
S'b5b3ec86f6e1d1562599f11963da7d6a'
tp469
a(S'/usr/include/boost/python/detail/def_helper.hpp'
F1280128834
S'5f6fe2ece05dfbe81fabc2daac07c217'
tp470
a(S'/usr/include/boost/python/detail/def_helper_fwd.hpp'
F1280128834
S'4d689b2adfa309e79cd33d1da8b1eb0d'
tp471
a(S'/usr/include/boost/python/detail/defaults_def.hpp'
F1280128834
S'945861147b294851e2cfc51c8ef75bad'
tp472
a(S'/usr/include/boost/python/detail/defaults_gen.hpp'
F1280128834
S'd8315b40b5ca79e932203c5f1457bf79'
tp473
a(S'/usr/include/boost/python/detail/dependent.hpp'
F1280128834
S'd5fd198a3b3065f771efb2099191c642'
tp474
a(S'/usr/include/boost/python/detail/destroy.hpp'
F1280128834
S'1e31832b6189dd80663d68747eb8242c'
tp475
a(S'/usr/include/boost/python/detail/exception_handler.hpp'
F1280128834
S'5eb0eeb433072a6a754ff2b0cc18e58a'
tp476
a(S'/usr/include/boost/python/detail/force_instantiate.hpp'
F1280128834
S'5129adf1c0e50c4c8f42b454a91890ef'
tp477
a(S'/usr/include/boost/python/detail/indirect_traits.hpp'
F1280128834
S'533ac1ed697402f1a42850da3cf86a28'
tp478
a(S'/usr/include/boost/python/detail/invoke.hpp'
F1280128834
S'dd434f5763c3611c41c5c640f7fd5d11'
tp479
a(S'/usr/include/boost/python/detail/is_auto_ptr.hpp'
F1280128834
S'4088bf8eda61f2eb4986447226abd1e6'
tp480
a(S'/usr/include/boost/python/detail/is_wrapper.hpp'
F1280128834
S'4e201dfb15a82af7057001ba9ce5fab4'
tp481
a(S'/usr/include/boost/python/detail/is_xxx.hpp'
F1280128834
S'02c6e6656719a0257e8de26b654d5ae2'
tp482
a(S'/usr/include/boost/python/detail/make_keyword_range_fn.hpp'
F1280128834
S'2b6aee024fc56099fd9909153250e1d2'
tp483
a(S'/usr/include/boost/python/detail/make_tuple.hpp'
F1280128834
S'b9b48f2a09319380705061a391a7040c'
tp484
a(S'/usr/include/boost/python/detail/mpl_lambda.hpp'
F1280128834
S'cd87ec825bc0adb664b4021885390c75'
tp485
a(S'/usr/include/boost/python/detail/msvc_typeinfo.hpp'
F1280128834
S'395d5704922663cf3fcc3ddb8361bdc7'
tp486
a(S'/usr/include/boost/python/detail/none.hpp'
F1280128834
S'9882762035f37595b0ec809a25cc53c4'
tp487
a(S'/usr/include/boost/python/detail/not_specified.hpp'
F1280128834
S'bda38f2d61931cd0c34a1d132c5fc3e7'
tp488
a(S'/usr/include/boost/python/detail/nullary_function_adaptor.hpp'
F1280128834
S'4947af77681cdeefa1899b25a26880df'
tp489
a(S'/usr/include/boost/python/detail/operator_id.hpp'
F1280128834
S'ac13ba319674aa92fd7044269674a8c0'
tp490
a(S'/usr/include/boost/python/detail/overloads_fwd.hpp'
F1280128834
S'b338f4c2f009b49d37851e2358a1a60c'
tp491
a(S'/usr/include/boost/python/detail/prefix.hpp'
F1280128834
S'0859a88ca5de60e66ddba4d102ee5008'
tp492
a(S'/usr/include/boost/python/detail/preprocessor.hpp'
F1280128834
S'790a7445cbb8d7c9347a24f98b5e92e1'
tp493
a(S'/usr/include/boost/python/detail/raw_pyobject.hpp'
F1280128834
S'18f4a34bd5715723a2eb056f00a0ee6d'
tp494
a(S'/usr/include/boost/python/detail/referent_storage.hpp'
F1280128834
S'a3620d1484689474f0b946ad46c43824'
tp495
a(S'/usr/include/boost/python/detail/scope.hpp'
F1280128834
S'de838ed6e568a80abe02c8f614e7e169'
tp496
a(S'/usr/include/boost/python/detail/sfinae.hpp'
F1280128834
S'49977fc5be412f442e5e117cf48158fa'
tp497
a(S'/usr/include/boost/python/detail/signature.hpp'
F1280128834
S'9973d3b58c0d16d22e1abc91304abdb8'
tp498
a(S'/usr/include/boost/python/detail/string_literal.hpp'
F1280128834
S'2d29c349771851b4cebdc6c74eabeb6e'
tp499
a(S'/usr/include/boost/python/detail/target.hpp'
F1280128834
S'ab42a1ea8015038184a2212d2dcd1f4a'
tp500
a(S'/usr/include/boost/python/detail/translate_exception.hpp'
F1280128834
S'5b7c51405fbb2ff0180e274989491d72'
tp501
a(S'/usr/include/boost/python/detail/type_list.hpp'
F1280128834
S'1d5f6697fafebc79588ce05bc2ddf93d'
tp502
a(S'/usr/include/boost/python/detail/type_list_impl.hpp'
F1280128834
S'14cf31596d204a7af6d572ec13f1bb90'
tp503
a(S'/usr/include/boost/python/detail/unwind_type.hpp'
F1280128834
S'7473be4649dad9b4a851b6bc97b37cfa'
tp504
a(S'/usr/include/boost/python/detail/unwrap_type_id.hpp'
F1280128834
S'6bdac659bc84b6354841b023f2e8201b'
tp505
a(S'/usr/include/boost/python/detail/unwrap_wrapper.hpp'
F1280128834
S'a1180bc2c0db9b2d35127c765a8e4b47'
tp506
a(S'/usr/include/boost/python/detail/value_arg.hpp'
F1280128834
S'f76b126f97559485ba531145e995efc1'
tp507
a(S'/usr/include/boost/python/detail/value_is_shared_ptr.hpp'
F1280128834
S'6155dd0fd4ebef47f8cb23a21b8c1513'
tp508
a(S'/usr/include/boost/python/detail/value_is_xxx.hpp'
F1280128834
S'e4f3725867eb9d82040343c13fa781d3'
tp509
a(S'/usr/include/boost/python/detail/void_ptr.hpp'
F1280128834
S'bc383e4acb58e16bd73104a8881454a6'
tp510
a(S'/usr/include/boost/python/detail/void_return.hpp'
F1280128834
S'85055ed6ab03053dc6118b96fc6c39a5'
tp511
a(S'/usr/include/boost/python/detail/wrap_python.hpp'
F1280128834
S'07cca4923918d49948eb2fe75a2fdfef'
tp512
a(S'/usr/include/boost/python/detail/wrapper_base.hpp'
F1280128834
S'1cc055ae6d169ed7b985ecfadfdac851'
tp513
a(S'/usr/include/boost/python/dict.hpp'
F1280128831
S'5dc4e1c4d74266b570581431f6b4bae5'
tp514
a(S'/usr/include/boost/python/docstring_options.hpp'
F1280128831
S'bcd1f726a903805f84cd521d066e1d86'
tp515
a(S'/usr/include/boost/python/enum.hpp'
F1280128831
S'95982f08cb7d01721c5a772517c2a105'
tp516
a(S'/usr/include/boost/python/errors.hpp'
F1280128831
S'cbb5061c6bf3714396c91be7cb04c613'
tp517
a(S'/usr/include/boost/python/exception_translator.hpp'
F1280128831
S'd7d6b16490e8f889e9080985606c4bf0'
tp518
a(S'/usr/include/boost/python/exec.hpp'
F1280128831
S'fb842b57a3a9004d218d9bd1a89508a6'
tp519
a(S'/usr/include/boost/python/extract.hpp'
F1280128831
S'07a284fa1e8bfcf8329a383d5e0b4e91'
tp520
a(S'/usr/include/boost/python/handle.hpp'
F1280128831
S'08594e2019c780e3c025b0eb197216a3'
tp521
a(S'/usr/include/boost/python/handle_fwd.hpp'
F1280128831
S'a11ae1e0cd3d8d9262f6fc7d551108e0'
tp522
a(S'/usr/include/boost/python/has_back_reference.hpp'
F1280128831
S'b9a71adc1a2ca60b314706c339dec499'
tp523
a(S'/usr/include/boost/python/implicit.hpp'
F1280128831
S'6af47dbf4c86bce2cd263aa3ceb95882'
tp524
a(S'/usr/include/boost/python/import.hpp'
F1280128831
S'1ee60fa8e0e60cc751b63ae38400f6a6'
tp525
a(S'/usr/include/boost/python/init.hpp'
F1280128831
S'b147c397b0911ca15b3a5c6d1ca0e4f8'
tp526
a(S'/usr/include/boost/python/instance_holder.hpp'
F1280128831
S'68d276fa6ebea41f518037782fafe5fd'
tp527
a(S'/usr/include/boost/python/iterator.hpp'
F1280128831
S'c0379dcddb7d22da6d8bbe0454abb402'
tp528
a(S'/usr/include/boost/python/list.hpp'
F1280128831
S'e1901fa7a1711da167812282e3866f3c'
tp529
a(S'/usr/include/boost/python/long.hpp'
F1280128831
S'0c5daf53f086072f3a7f0e02cf0b7163'
tp530
a(S'/usr/include/boost/python/lvalue_from_pytype.hpp'
F1280128831
S'ea30dc72cac5ad72a3be95cfdce15e87'
tp531
a(S'/usr/include/boost/python/make_constructor.hpp'
F1280128831
S'f0a89518220166a8f0a7406d1246e873'
tp532
a(S'/usr/include/boost/python/make_function.hpp'
F1280128831
S'c7ed0adc672bb0e500974707b0cc3e25'
tp533
a(S'/usr/include/boost/python/manage_new_object.hpp'
F1280128831
S'dafb9e50de566fd4f65cf04948b26c8f'
tp534
a(S'/usr/include/boost/python/module.hpp'
F1280128831
S'6c2730cbb7a752e1ad9991c1f89d5ff6'
tp535
a(S'/usr/include/boost/python/module_init.hpp'
F1280128831
S'6485beb51586e5422281f703043b3f95'
tp536
a(S'/usr/include/boost/python/numeric.hpp'
F1280128831
S'159c856919aeaba533769ef3dbaff5db'
tp537
a(S'/usr/include/boost/python/object.hpp'
F1280128831
S'7d0f14d45eb2690fa1d8747c3eb5c294'
tp538
a(S'/usr/include/boost/python/object/add_to_namespace.hpp'
F1280128834
S'c3ecf02db2a0e84056b16b6a96eeaac3'
tp539
a(S'/usr/include/boost/python/object/class.hpp'
F1280128834
S'abc57e3bb607167b771a1b45806136d1'
tp540
a(S'/usr/include/boost/python/object/class_detail.hpp'
F1280128834
S'cc030e046486563b58f2e9a4657c9044'
tp541
a(S'/usr/include/boost/python/object/class_metadata.hpp'
F1280128834
S'36886d0ae4ab03a7e80b6db85e5db306'
tp542
a(S'/usr/include/boost/python/object/class_wrapper.hpp'
F1280128834
S'5512002cfa5a4e47c108f62912dea9f6'
tp543
a(S'/usr/include/boost/python/object/enum_base.hpp'
F1280128834
S'9f41b145923c7e47e481d4056092de6d'
tp544
a(S'/usr/include/boost/python/object/forward.hpp'
F1280128834
S'b3fe0c791268273d7a4d1519912e2436'
tp545
a(S'/usr/include/boost/python/object/function.hpp'
F1280128834
S'05dd3dc83c8901d6e6614628a393bd40'
tp546
a(S'/usr/include/boost/python/object/function_handle.hpp'
F1280128834
S'b769dab61e58c3c0b1b09ad2b88d619d'
tp547
a(S'/usr/include/boost/python/object/function_object.hpp'
F1280128834
S'37f2a08cfa21571e444fd3d10b743b2f'
tp548
a(S'/usr/include/boost/python/object/inheritance.hpp'
F1280128834
S'e182d3a7ef9f83ad1f1ff22c9e21ce82'
tp549
a(S'/usr/include/boost/python/object/inheritance_query.hpp'
F1280128834
S'395703112f5a9d8e33fe27116c5d6147'
tp550
a(S'/usr/include/boost/python/object/instance.hpp'
F1280128834
S'ae91d1c6e2c0694fba985965b3d9b2fa'
tp551
a(S'/usr/include/boost/python/object/iterator.hpp'
F1280128834
S'a382c85a485453720526e5aafe2aac95'
tp552
a(S'/usr/include/boost/python/object/iterator_core.hpp'
F1280128834
S'a50f242a0db941f26f2dccc127c19493'
tp553
a(S'/usr/include/boost/python/object/life_support.hpp'
F1280128834
S'5c4eae601a5bedc21d4ffa1bf08bdb24'
tp554
a(S'/usr/include/boost/python/object/make_holder.hpp'
F1280128834
S'a4bed65394080df71e7c1f48d62a0905'
tp555
a(S'/usr/include/boost/python/object/make_instance.hpp'
F1280128834
S'e2dea73824cb427ef3f68c2d829c4510'
tp556
a(S'/usr/include/boost/python/object/make_ptr_instance.hpp'
F1280128834
S'040a78ff2812cbbf16c1a306098fa7cc'
tp557
a(S'/usr/include/boost/python/object/pickle_support.hpp'
F1280128834
S'f2ba0d5dc1f49fb996eb50997d25283b'
tp558
a(S'/usr/include/boost/python/object/pointer_holder.hpp'
F1280128834
S'7b959c1c198ff459799e3f40efcbca0e'
tp559
a(S'/usr/include/boost/python/object/py_function.hpp'
F1280128834
S'857e8ab97be73fb5a462707d4d33b5d9'
tp560
a(S'/usr/include/boost/python/object/value_holder.hpp'
F1280128834
S'f9b53e53edf25aec60672897ed4d0b56'
tp561
a(S'/usr/include/boost/python/object/value_holder_fwd.hpp'
F1280128834
S'c06bd38831012aea2c6c5f0aedc17b48'
tp562
a(S'/usr/include/boost/python/object_attributes.hpp'
F1280128831
S'284646c0439dd265768327138cf74ba9'
tp563
a(S'/usr/include/boost/python/object_call.hpp'
F1280128831
S'22329b25e8daa4b08e24cee0aaf4323c'
tp564
a(S'/usr/include/boost/python/object_core.hpp'
F1280128831
S'50be89e2971d182dd166d1fa8813314c'
tp565
a(S'/usr/include/boost/python/object_fwd.hpp'
F1280128831
S'0d625352a586bf5f82eed17270b91e71'
tp566
a(S'/usr/include/boost/python/object_items.hpp'
F1280128831
S'c47eaa179864b6d45cb2667aa16863f1'
tp567
a(S'/usr/include/boost/python/object_operators.hpp'
F1280128831
S'4846b1daf8dc751267e719a774803b8b'
tp568
a(S'/usr/include/boost/python/object_protocol.hpp'
F1280128831
S'3c74e56347ff8c7622419331d811833b'
tp569
a(S'/usr/include/boost/python/object_protocol_core.hpp'
F1280128831
S'7bcf18137c9866e4f11d30fc27c2b9d0'
tp570
a(S'/usr/include/boost/python/object_slices.hpp'
F1280128831
S'683339a32ca03e1e29379b3042ec46e9'
tp571
a(S'/usr/include/boost/python/opaque_pointer_converter.hpp'
F1280128831
S'904df37ffbb70471e6e3b693e68313fc'
tp572
a(S'/usr/include/boost/python/operators.hpp'
F1280128831
S'ddde1c70f1e8d62fc0d6ab9741201d7a'
tp573
a(S'/usr/include/boost/python/other.hpp'
F1280128831
S'b02913f08b81ff11451a755150841e6e'
tp574
a(S'/usr/include/boost/python/overloads.hpp'
F1280128831
S'a0f562dba2e626db12b6516a9d458310'
tp575
a(S'/usr/include/boost/python/override.hpp'
F1280128831
S'9732fd6332fde91651da1419053d2288'
tp576
a(S'/usr/include/boost/python/pointee.hpp'
F1280128831
S'59bc9afd0597ca57a1c331e7c9db40d7'
tp577
a(S'/usr/include/boost/python/proxy.hpp'
F1280128831
S'6a37aacbb226a8f4c84e8fd0a5ffcfe2'
tp578
a(S'/usr/include/boost/python/ptr.hpp'
F1280128831
S'9781e4c20c191a1ea4f6f2b606ab6f77'
tp579
a(S'/usr/include/boost/python/pure_virtual.hpp'
F1280128831
S'aaa7c277960771c5de78822d2c1ed295'
tp580
a(S'/usr/include/boost/python/refcount.hpp'
F1280128830
S'cc1b5f7fbbe783e238262ec2d8a16bf2'
tp581
a(S'/usr/include/boost/python/reference_existing_object.hpp'
F1280128831
S'fc8825f31a87b00d9cc7bbe0e73d4c7b'
tp582
a(S'/usr/include/boost/python/register_ptr_to_python.hpp'
F1280128831
S'93c2d15f98b108c55a078ef09842f991'
tp583
a(S'/usr/include/boost/python/return_arg.hpp'
F1280128831
S'd3c1ff3234b55c282f4ef1c7a4564d17'
tp584
a(S'/usr/include/boost/python/return_by_value.hpp'
F1280128831
S'6145b38102021b1f24cba0f7cfe353fc'
tp585
a(S'/usr/include/boost/python/return_internal_reference.hpp'
F1280128831
S'17e174ca93d71da2d038edd3a62798c6'
tp586
a(S'/usr/include/boost/python/return_opaque_pointer.hpp'
F1280128831
S'6b17bdb30de4e91c161bbf48a7479902'
tp587
a(S'/usr/include/boost/python/return_value_policy.hpp'
F1280128831
S'86d9429c4f2537aaf82c7134341b5c02'
tp588
a(S'/usr/include/boost/python/scope.hpp'
F1280128831
S'1c64a219df4256e1d4b6e9b7397e839e'
tp589
a(S'/usr/include/boost/python/self.hpp'
F1280128831
S'707b9243b7eff7caa0d9cb0f86762942'
tp590
a(S'/usr/include/boost/python/signature.hpp'
F1280128831
S'10cca2b36acfbb2d1010357379a1dc43'
tp591
a(S'/usr/include/boost/python/slice_nil.hpp'
F1280128831
S'11ce61453d281f11fdd0d86b6adaf995'
tp592
a(S'/usr/include/boost/python/ssize_t.hpp'
F1280128831
S'2ec759ac72eeb64f2d3cc5bfa93c0150'
tp593
a(S'/usr/include/boost/python/str.hpp'
F1280128831
S'86938f9464aa21567ff3b471538e81d9'
tp594
a(S'/usr/include/boost/python/tag.hpp'
F1280128831
S'71f4ad682340edc8892fc1b44af29ef4'
tp595
a(S'/usr/include/boost/python/to_python_converter.hpp'
F1280128831
S'9249376e11bdfd4f23612c7876cacd16'
tp596
a(S'/usr/include/boost/python/to_python_indirect.hpp'
F1280128831
S'fc447be71c786faf217e25a170662c6d'
tp597
a(S'/usr/include/boost/python/to_python_value.hpp'
F1280128831
S'213bf45910cfcd5f6f0ff89863fdc728'
tp598
a(S'/usr/include/boost/python/tuple.hpp'
F1280128831
S'b99609b63557c6c4159561cfc7358e12'
tp599
a(S'/usr/include/boost/python/type_id.hpp'
F1280128831
S'4ce49c7776ab14ee053baaf1ed07c185'
tp600
a(S'/usr/include/boost/python/with_custodian_and_ward.hpp'
F1280128831
S'ece97d888af43eed3c1c87fffa3eb3a3'
tp601
a(S'/usr/include/boost/python/wrapper.hpp'
F1280128831
S'3703f827e5aeace668489ec5042c1859'
tp602
a(S'/usr/include/boost/ref.hpp'
F1280128830
S'22134718a7afdb8b060ef165916da2cf'
tp603
a(S'/usr/include/boost/shared_ptr.hpp'
F1280128830
S'3fba5366d2f5088e1b44f0ac1b1a4389'
tp604
a(S'/usr/include/boost/smart_ptr/bad_weak_ptr.hpp'
F1280128831
S'b835a7dd470191210e542a76fb24f7f7'
tp605
a(S'/usr/include/boost/smart_ptr/detail/operator_bool.hpp'
F1280128834
S'36b8eb97465aec7d13ed6d709cccf72a'
tp606
a(S'/usr/include/boost/smart_ptr/detail/shared_count.hpp'
F1280128834
S'a287edfdccbe932feabcf89eb56d808f'
tp607
a(S'/usr/include/boost/smart_ptr/detail/sp_convertible.hpp'
F1280128835
S'10c3a1e4b40bfc503a3dccf8e2f8627c'
tp608
a(S'/usr/include/boost/smart_ptr/detail/sp_counted_base.hpp'
F1280128834
S'eec307b81ce3e03e11b7e8689b3dc77a'
tp609
a(S'/usr/include/boost/smart_ptr/detail/sp_counted_base_gcc_x86.hpp'
F1280128835
S'3824cfc8d962cda77db1934c6db20765'
tp610
a(S'/usr/include/boost/smart_ptr/detail/sp_counted_impl.hpp'
F1280128835
S'ed09d6f402e676a4b1fc412d08d0b7cf'
tp611
a(S'/usr/include/boost/smart_ptr/detail/sp_has_sync.hpp'
F1280128835
S'aa1bb3e88c0cfdadd09469e3aa3ed08e'
tp612
a(S'/usr/include/boost/smart_ptr/detail/spinlock.hpp'
F1280128834
S'b486d03c58ee76c29072459e20c2f1d1'
tp613
a(S'/usr/include/boost/smart_ptr/detail/spinlock_pool.hpp'
F1280128835
S'0ec6f8fc76a8e2d15981719820473d84'
tp614
a(S'/usr/include/boost/smart_ptr/detail/spinlock_sync.hpp'
F1280128835
S'35e4fbaaf95b82dd3628f768fd487e88'
tp615
a(S'/usr/include/boost/smart_ptr/detail/yield_k.hpp'
F1280128834
S'73dcbbb6ab4d926ef53dd6479df79d78'
tp616
a(S'/usr/include/boost/smart_ptr/shared_ptr.hpp'
F1280128831
S'6a2adf82c58972296663050b4c6c3c84'
tp617
a(S'/usr/include/boost/static_assert.hpp'
F1280128830
S'd42f6fe636a21b3d7e34de9bada47fa7'
tp618
a(S'/usr/include/boost/swap.hpp'
F1280128830
S'b9198a2c3d5559ab43f805b8b7d09a70'
tp619
a(S'/usr/include/boost/throw_exception.hpp'
F1280128830
S'd51dda6b100b484ce59253421d763c65'
tp620
a(S'/usr/include/boost/tuple/detail/tuple_basic.hpp'
F1280128834
S'fe2f9227a3ebc6d8aad32f8122a8f12b'
tp621
a(S'/usr/include/boost/tuple/tuple.hpp'
F1280128830
S'114348b3dcaa3eec51515abea078de80'
tp622
a(S'/usr/include/boost/type.hpp'
F1280128830
S'a1ce7827c60d15b546609fb3bf63a5b6'
tp623
a(S'/usr/include/boost/type_traits.hpp'
F1280128830
S'02b9fa372eaff14814621d8da3d7eb10'
tp624
a(S'/usr/include/boost/type_traits/add_const.hpp'
F1280128832
S'3c8ce4c6051ba093b3b3e1097c53f320'
tp625
a(S'/usr/include/boost/type_traits/add_cv.hpp'
F1280128832
S'daac95f56a0ba94c3b7ef3adb5c22f80'
tp626
a(S'/usr/include/boost/type_traits/add_pointer.hpp'
F1280128832
S'9c4611bed89b1b760d9ba2456c5f6ae3'
tp627
a(S'/usr/include/boost/type_traits/add_reference.hpp'
F1280128832
S'c35f29943a79e7c14568459bdf2adbe4'
tp628
a(S'/usr/include/boost/type_traits/add_volatile.hpp'
F1280128832
S'182437016dfe81d45c9b99e898499a1b'
tp629
a(S'/usr/include/boost/type_traits/aligned_storage.hpp'
F1280128832
S'b4f3a0785efd3498349e8977d059372b'
tp630
a(S'/usr/include/boost/type_traits/alignment_of.hpp'
F1280128832
S'6e5ee7fc5fd490bbe9430d0ccd04a6d6'
tp631
a(S'/usr/include/boost/type_traits/alignment_traits.hpp'
F1280128832
S'b54095c9543fb108c8e54b6a0ab08890'
tp632
a(S'/usr/include/boost/type_traits/array_traits.hpp'
F1280128832
S'03f646d788ef643138cf7f6a88426bf8'
tp633
a(S'/usr/include/boost/type_traits/broken_compiler_spec.hpp'
F1280128832
S'83f82961f5bcb4f1265b1d6fcb293c48'
tp634
a(S'/usr/include/boost/type_traits/composite_traits.hpp'
F1280128832
S'3cddc2907a22b41c91af0b7f9fd4cdd4'
tp635
a(S'/usr/include/boost/type_traits/config.hpp'
F1280128832
S'8dc1f4937093ee8ec821f8346d3b77ee'
tp636
a(S'/usr/include/boost/type_traits/cv_traits.hpp'
F1280128832
S'035468538d2c0961fe81f0b670bf73c7'
tp637
a(S'/usr/include/boost/type_traits/decay.hpp'
F1280128832
S'60dcd8cc71871c69fd28b7b7b9a1721a'
tp638
a(S'/usr/include/boost/type_traits/detail/bool_trait_def.hpp'
F1280128837
S'52942499bd776dd9f93699d4f4e15157'
tp639
a(S'/usr/include/boost/type_traits/detail/bool_trait_undef.hpp'
F1280128837
S'065584d96e265d268a53ee8fce6d67d8'
tp640
a(S'/usr/include/boost/type_traits/detail/cv_traits_impl.hpp'
F1280128837
S'606d1891b61c7d0eaa1053e36138275f'
tp641
a(S'/usr/include/boost/type_traits/detail/false_result.hpp'
F1280128837
S'ee1efbd1fbbc912f0ada0cd987d73308'
tp642
a(S'/usr/include/boost/type_traits/detail/ice_and.hpp'
F1280128837
S'9d6181ec3d0a42927fd7e5a68ad4ae82'
tp643
a(S'/usr/include/boost/type_traits/detail/ice_eq.hpp'
F1280128837
S'8aa6c3c2de544a2872a1e8a5fd03fd31'
tp644
a(S'/usr/include/boost/type_traits/detail/ice_not.hpp'
F1280128837
S'3dbe0d4daf23a70f1b0ee33dbd0642f5'
tp645
a(S'/usr/include/boost/type_traits/detail/ice_or.hpp'
F1280128837
S'be6fbc9813269033da86a5743262ee5d'
tp646
a(S'/usr/include/boost/type_traits/detail/is_function_ptr_helper.hpp'
F1280128837
S'c51597e29cdd64734bd83c7655b2fcfc'
tp647
a(S'/usr/include/boost/type_traits/detail/is_mem_fun_pointer_impl.hpp'
F1280128837
S'4c5df760ae4485e937bb5e888a7b0b73'
tp648
a(S'/usr/include/boost/type_traits/detail/size_t_trait_def.hpp'
F1280128837
S'f07b7bb2329fb4e2d5f315330967fd08'
tp649
a(S'/usr/include/boost/type_traits/detail/size_t_trait_undef.hpp'
F1280128837
S'0004769e73408bc467d21e0981ceaaa0'
tp650
a(S'/usr/include/boost/type_traits/detail/template_arity_spec.hpp'
F1280128837
S'bd5b856cf311f98e2126c368bb14136c'
tp651
a(S'/usr/include/boost/type_traits/detail/type_trait_def.hpp'
F1280128837
S'43ca6be0eb9d5990311b0c09a925a21b'
tp652
a(S'/usr/include/boost/type_traits/detail/type_trait_undef.hpp'
F1280128837
S'f4cb6d830177dab5e9dd2a4870a39e03'
tp653
a(S'/usr/include/boost/type_traits/detail/yes_no_type.hpp'
F1280128837
S'aed617c375fa6d4f7e55a990084931c4'
tp654
a(S'/usr/include/boost/type_traits/extent.hpp'
F1280128832
S'c485014eb9d71c942fab0862477eb720'
tp655
a(S'/usr/include/boost/type_traits/floating_point_promotion.hpp'
F1280128832
S'53fd14b2a0e358d3b3d42d164eb3343a'
tp656
a(S'/usr/include/boost/type_traits/function_traits.hpp'
F1280128832
S'c9e6ffed485a09a743fbf4f507a8f09a'
tp657
a(S'/usr/include/boost/type_traits/has_nothrow_assign.hpp'
F1280128832
S'a3c39e9045f7727cbbb792cb8efb31bb'
tp658
a(S'/usr/include/boost/type_traits/has_nothrow_constructor.hpp'
F1280128832
S'26573dbef94c5dbac548f1627fb82baa'
tp659
a(S'/usr/include/boost/type_traits/has_nothrow_copy.hpp'
F1280128832
S'0f0dcc2362ce3085be139aacffa27273'
tp660
a(S'/usr/include/boost/type_traits/has_nothrow_destructor.hpp'
F1280128832
S'389477dc5b208fe9a7bbe0eff375bf26'
tp661
a(S'/usr/include/boost/type_traits/has_trivial_assign.hpp'
F1280128832
S'67793f08f9ee3aaabf1691e097887e0a'
tp662
a(S'/usr/include/boost/type_traits/has_trivial_constructor.hpp'
F1280128832
S'93f2a9e01c2b4b790b47e8f49623b000'
tp663
a(S'/usr/include/boost/type_traits/has_trivial_copy.hpp'
F1280128832
S'f26d361123d3ce92f513d323ede3e943'
tp664
a(S'/usr/include/boost/type_traits/has_trivial_destructor.hpp'
F1280128832
S'90bfb5eff34ad2be3795a397f25815b8'
tp665
a(S'/usr/include/boost/type_traits/has_virtual_destructor.hpp'
F1280128832
S'd82519ad6fd74ebd4d00773047dafca7'
tp666
a(S'/usr/include/boost/type_traits/ice.hpp'
F1280128832
S'd6ce3d57873acae4c23001004bd658d5'
tp667
a(S'/usr/include/boost/type_traits/integral_constant.hpp'
F1280128832
S'fd0e64decfaa74cef5f4936f5082f539'
tp668
a(S'/usr/include/boost/type_traits/integral_promotion.hpp'
F1280128832
S'6b9a3a9a8a0a6a607f02bcc782bc0073'
tp669
a(S'/usr/include/boost/type_traits/intrinsics.hpp'
F1280128832
S'6719f56d0613d2658f628dbb04ce63bf'
tp670
a(S'/usr/include/boost/type_traits/is_abstract.hpp'
F1280128832
S'8e2f299e8e05e780b17be5360cc318a2'
tp671
a(S'/usr/include/boost/type_traits/is_arithmetic.hpp'
F1280128832
S'35d362c98a526c66510400bcb2673b1f'
tp672
a(S'/usr/include/boost/type_traits/is_array.hpp'
F1280128832
S'c1d1bb88d62b496627c417cedc238d31'
tp673
a(S'/usr/include/boost/type_traits/is_base_and_derived.hpp'
F1280128832
S'd57822ba677fc2d70058fef260d1ac8f'
tp674
a(S'/usr/include/boost/type_traits/is_base_of.hpp'
F1280128832
S'38550d74a42fe9f2525946704e8c145a'
tp675
a(S'/usr/include/boost/type_traits/is_class.hpp'
F1280128832
S'd6ff85f0915514b8fd2d291791cf5ebe'
tp676
a(S'/usr/include/boost/type_traits/is_complex.hpp'
F1280128832
S'8adca8ee91a2366e5e27f46c77f5313c'
tp677
a(S'/usr/include/boost/type_traits/is_compound.hpp'
F1280128832
S'59c19942defd9164e5e60c2bc40a32c0'
tp678
a(S'/usr/include/boost/type_traits/is_const.hpp'
F1280128832
S'adf22218b0d02677f8fc43402504ca3a'
tp679
a(S'/usr/include/boost/type_traits/is_convertible.hpp'
F1280128832
S'f341b34e77e1ca16023714f12c3ad2c9'
tp680
a(S'/usr/include/boost/type_traits/is_empty.hpp'
F1280128832
S'0edb2b186b5d640115ee56ce352a5d74'
tp681
a(S'/usr/include/boost/type_traits/is_enum.hpp'
F1280128832
S'78471e2aa36c76104e734345f85404ab'
tp682
a(S'/usr/include/boost/type_traits/is_float.hpp'
F1280128832
S'8bf225ce75557ef040411dd008fe21fd'
tp683
a(S'/usr/include/boost/type_traits/is_floating_point.hpp'
F1280128832
S'ab570f8b0251205ff340754b93763029'
tp684
a(S'/usr/include/boost/type_traits/is_function.hpp'
F1280128832
S'0ed71b6c071b3857716768ca32dc7ffa'
tp685
a(S'/usr/include/boost/type_traits/is_fundamental.hpp'
F1280128832
S'3c1852ea12aa556b7762a8366dc48df6'
tp686
a(S'/usr/include/boost/type_traits/is_integral.hpp'
F1280128832
S'26174081204141f8359694415912ba80'
tp687
a(S'/usr/include/boost/type_traits/is_member_function_pointer.hpp'
F1280128832
S'871766002c016ac6a2d2f7d84e849806'
tp688
a(S'/usr/include/boost/type_traits/is_member_object_pointer.hpp'
F1280128832
S'ae4d3fd38846249c49c90f55b15acafa'
tp689
a(S'/usr/include/boost/type_traits/is_member_pointer.hpp'
F1280128832
S'c1f8c358f5d1d9102db6ae9e987984e2'
tp690
a(S'/usr/include/boost/type_traits/is_object.hpp'
F1280128832
S'ffb86d34a2cec31f6ce7a9fed599ae69'
tp691
a(S'/usr/include/boost/type_traits/is_pod.hpp'
F1280128832
S'35d229ed4475043517761f931a23654f'
tp692
a(S'/usr/include/boost/type_traits/is_pointer.hpp'
F1280128832
S'6de3c56f1f3a918e445b18c230cba30d'
tp693
a(S'/usr/include/boost/type_traits/is_polymorphic.hpp'
F1280128832
S'2e1f87f58eb136adb80c38fc419215ed'
tp694
a(S'/usr/include/boost/type_traits/is_reference.hpp'
F1280128832
S'8f6a7de8a49a9cb8ef116363013ed5c7'
tp695
a(S'/usr/include/boost/type_traits/is_same.hpp'
F1280128832
S'41425cc7a7f03893f616275923471a5a'
tp696
a(S'/usr/include/boost/type_traits/is_scalar.hpp'
F1280128832
S'0d09d873a9ad003bff953d2655c63b1f'
tp697
a(S'/usr/include/boost/type_traits/is_signed.hpp'
F1280128832
S'814831e76b751b510045c8fbbcff6aa3'
tp698
a(S'/usr/include/boost/type_traits/is_stateless.hpp'
F1280128832
S'47bf83066a3934cf3eb707d4d56f811a'
tp699
a(S'/usr/include/boost/type_traits/is_union.hpp'
F1280128832
S'146eb461b5a38aa619c57451b6e25b76'
tp700
a(S'/usr/include/boost/type_traits/is_unsigned.hpp'
F1280128832
S'891270e12d6dabb7d5f8fa19b3d18220'
tp701
a(S'/usr/include/boost/type_traits/is_void.hpp'
F1280128832
S'c8c775713cbfe59004398048ce4fc493'
tp702
a(S'/usr/include/boost/type_traits/is_volatile.hpp'
F1280128832
S'421a26996babb4345b665583ae998b08'
tp703
a(S'/usr/include/boost/type_traits/make_signed.hpp'
F1280128832
S'11d648b3089221bf2f46cf4c84956dab'
tp704
a(S'/usr/include/boost/type_traits/make_unsigned.hpp'
F1280128832
S'3af19f63c2038f1636afb85a914be396'
tp705
a(S'/usr/include/boost/type_traits/object_traits.hpp'
F1280128832
S'aa8b196fa462eabdd8f94aa24ae7d5ca'
tp706
a(S'/usr/include/boost/type_traits/promote.hpp'
F1280128832
S'19c77189f65d615c03df1aca5c6901d5'
tp707
a(S'/usr/include/boost/type_traits/rank.hpp'
F1280128832
S'2d1f2aa2bca62c620c8a7cb97c3db4db'
tp708
a(S'/usr/include/boost/type_traits/remove_all_extents.hpp'
F1280128832
S'07ab1e0c69d56cb0fcb8dbd02ac7c242'
tp709
a(S'/usr/include/boost/type_traits/remove_bounds.hpp'
F1280128832
S'5a99cfb8751d87fea8d31c2ea371b06b'
tp710
a(S'/usr/include/boost/type_traits/remove_const.hpp'
F1280128832
S'e4c7a53c594d9008cc3500b352f58c8b'
tp711
a(S'/usr/include/boost/type_traits/remove_cv.hpp'
F1280128832
S'3c55fc0d5bd96069999e1ab5237be490'
tp712
a(S'/usr/include/boost/type_traits/remove_extent.hpp'
F1280128832
S'ff2fa1fe320dcda1bd11753a5c448ca6'
tp713
a(S'/usr/include/boost/type_traits/remove_pointer.hpp'
F1280128832
S'921479257cbe656bb18ecf1edfbd93de'
tp714
a(S'/usr/include/boost/type_traits/remove_reference.hpp'
F1280128832
S'7740d75fb38ced1b2079d8eb37dbbc43'
tp715
a(S'/usr/include/boost/type_traits/remove_volatile.hpp'
F1280128832
S'cd5116c6a68d8268f17bf810bf66fd88'
tp716
a(S'/usr/include/boost/type_traits/same_traits.hpp'
F1280128832
S'4100f7afde5b62c18883553c114b8166'
tp717
a(S'/usr/include/boost/type_traits/transform_traits.hpp'
F1280128832
S'434c15e88ca321b3e3a7351d2e253640'
tp718
a(S'/usr/include/boost/type_traits/type_with_alignment.hpp'
F1280128832
S'7ce6a14ca530f2ecc28d383df273e06e'
tp719
a(S'/usr/include/boost/utility.hpp'
F1280128830
S'90eb61a94ec964c4e70ba4db5c435dd3'
tp720
a(S'/usr/include/boost/utility/addressof.hpp'
F1280128831
S'd2cde39cdfd89323261919cf4d714f07'
tp721
a(S'/usr/include/boost/utility/base_from_member.hpp'
F1280128831
S'c657364eea39bbba63a6047eb228bb96'
tp722
a(S'/usr/include/boost/utility/binary.hpp'
F1280128831
S'4a179638ab3beb0e3b1b30f181ac9e12'
tp723
a(S'/usr/include/boost/utility/enable_if.hpp'
F1280128831
S'df9ce0bc0ba0525fbb568f3444d422b2'
tp724
a(S'/usr/include/boost/utility/swap.hpp'
F1280128831
S'df2c12fcaced2eaf786103e85ee45e82'
tp725
a(S'/usr/include/boost/utility/value_init.hpp'
F1280128831
S'0e4a428ab2057db54cbb9dd2439cb215'
tp726
a(S'/usr/include/boost/visit_each.hpp'
F1280128830
S'bee0458ebcf3e3f96e075bfb8f1860fd'
tp727
a(S'/usr/include/c++/4.4/algorithm'
F1289737646
S'b1353584421c8105bc9f5866aaf59315'
tp728
a(S'/usr/include/c++/4.4/backward/auto_ptr.h'
F1289737644
S'7c1bab3fed36e81e77889af68b0e5592'
tp729
a(S'/usr/include/c++/4.4/backward/binders.h'
F1289737644
S'88264747cb2f2deba3763d3895102300'
tp730
a(S'/usr/include/c++/4.4/bits/algorithmfwd.h'
F1289737644
S'121be170ea40bcb05b177ef58655fef8'
tp731
a(S'/usr/include/c++/4.4/bits/allocator.h'
F1289737644
S'9a6a2721fae3eaa7fbe5d67ae3a36bfe'
tp732
a(S'/usr/include/c++/4.4/bits/basic_ios.h'
F1289737644
S'8978919ef26198df76b94dd259804d43'
tp733
a(S'/usr/include/c++/4.4/bits/basic_ios.tcc'
F1289737644
S'ede9d054043fb2e03ea2edacc7052a12'
tp734
a(S'/usr/include/c++/4.4/bits/basic_string.h'
F1289737644
S'a75f23c3a8e875d9361244384a9618bd'
tp735
a(S'/usr/include/c++/4.4/bits/basic_string.tcc'
F1289737644
S'59d2309389014551897a52477242c24b'
tp736
a(S'/usr/include/c++/4.4/bits/char_traits.h'
F1289737644
S'0d52337194abaad41caa7308f5cc4d6e'
tp737
a(S'/usr/include/c++/4.4/bits/cmath.tcc'
F1289737646
S'b934498cd768a678c78aeb66ba42570c'
tp738
a(S'/usr/include/c++/4.4/bits/codecvt.h'
F1289737644
S'14bfb3018783725c0349dae66c2f304e'
tp739
a(S'/usr/include/c++/4.4/bits/concept_check.h'
F1289737644
S'a7d2390228a415862763a57fd0a0b9eb'
tp740
a(S'/usr/include/c++/4.4/bits/cpp_type_traits.h'
F1289737644
S'26b97c04ca27b33712ca1bf581886008'
tp741
a(S'/usr/include/c++/4.4/bits/functexcept.h'
F1289737644
S'6f7e49f9994ba3955045d863d08a383e'
tp742
a(S'/usr/include/c++/4.4/bits/ios_base.h'
F1289737644
S'56b8288e3a1c130fe9e990febd4ce204'
tp743
a(S'/usr/include/c++/4.4/bits/istream.tcc'
F1289737644
S'e5c3b0512ebc447b402a08ab6a05b84d'
tp744
a(S'/usr/include/c++/4.4/bits/locale_classes.h'
F1289737644
S'4efd001d651d6ea9b83500389dac5ede'
tp745
a(S'/usr/include/c++/4.4/bits/locale_classes.tcc'
F1289737644
S'2324315696e4601ec20128d2691f2d3d'
tp746
a(S'/usr/include/c++/4.4/bits/locale_facets.h'
F1289737644
S'ed6f2c5103d14cc51bb7a7fd6be90962'
tp747
a(S'/usr/include/c++/4.4/bits/locale_facets.tcc'
F1289737644
S'6a7ca761becfcb122255b430e369a153'
tp748
a(S'/usr/include/c++/4.4/bits/locale_facets_nonio.h'
F1289737644
S'de3e2404b533d331121721b60863ba09'
tp749
a(S'/usr/include/c++/4.4/bits/locale_facets_nonio.tcc'
F1289737644
S'2fc2469d0757f906af518bb2f623681f'
tp750
a(S'/usr/include/c++/4.4/bits/localefwd.h'
F1289737644
S'8b566a5cb44b55761b06f24966a67c68'
tp751
a(S'/usr/include/c++/4.4/bits/move.h'
F1289737644
S'9895936ce17e47618960852e2f8b4b8d'
tp752
a(S'/usr/include/c++/4.4/bits/ostream.tcc'
F1289737644
S'9d0581935471206a429af3edeee661c3'
tp753
a(S'/usr/include/c++/4.4/bits/ostream_insert.h'
F1289737644
S'6880188412ed0f5e25933ffb3aeffa4d'
tp754
a(S'/usr/include/c++/4.4/bits/postypes.h'
F1289737644
S'd8ea78a85311872bd28c7b559e01b10b'
tp755
a(S'/usr/include/c++/4.4/bits/sstream.tcc'
F1289737644
S'dfb4af27f5154240b6dba7691f167765'
tp756
a(S'/usr/include/c++/4.4/bits/stl_algo.h'
F1289737644
S'95be6eed9d054e996bb871752235fa39'
tp757
a(S'/usr/include/c++/4.4/bits/stl_algobase.h'
F1289737644
S'076d7190d3710032e9d5c1d9d184d96c'
tp758
a(S'/usr/include/c++/4.4/bits/stl_construct.h'
F1289737644
S'ffcae8f9c98c6e8e85bbdde7826a0537'
tp759
a(S'/usr/include/c++/4.4/bits/stl_function.h'
F1289737644
S'c6aa170b08964c8aaf41a5e6c2ecc566'
tp760
a(S'/usr/include/c++/4.4/bits/stl_heap.h'
F1289737644
S'38dfbc19b8629cbfa425899a13c8cce1'
tp761
a(S'/usr/include/c++/4.4/bits/stl_iterator.h'
F1289737644
S'306243fbd3bd85f150f9bd5d41b88966'
tp762
a(S'/usr/include/c++/4.4/bits/stl_iterator_base_funcs.h'
F1289737644
S'3c557c628d61c2ee98acc267826dd2dd'
tp763
a(S'/usr/include/c++/4.4/bits/stl_iterator_base_types.h'
F1289737644
S'702cf82ea461534c6d386757b8180b38'
tp764
a(S'/usr/include/c++/4.4/bits/stl_pair.h'
F1289737644
S'e6890a12dc86ae3f4888b36c4abbde0f'
tp765
a(S'/usr/include/c++/4.4/bits/stl_raw_storage_iter.h'
F1289737644
S'fd8799a7dcd31aad3f355e8f41aeef87'
tp766
a(S'/usr/include/c++/4.4/bits/stl_relops.h'
F1289737644
S'965717a771792946980c1740df6cb294'
tp767
a(S'/usr/include/c++/4.4/bits/stl_tempbuf.h'
F1289737644
S'0a747538088daed86dbd19ff28a9191e'
tp768
a(S'/usr/include/c++/4.4/bits/stl_uninitialized.h'
F1289737644
S'ae4b53ec1bbda1be97ba6b54a6e768fe'
tp769
a(S'/usr/include/c++/4.4/bits/stream_iterator.h'
F1289737644
S'3c59b16ea3f0f8c53e20df29816a6b91'
tp770
a(S'/usr/include/c++/4.4/bits/streambuf.tcc'
F1289737644
S'70948c5beab6f972aa56278290d06508'
tp771
a(S'/usr/include/c++/4.4/bits/streambuf_iterator.h'
F1289737644
S'a2a30e3a0a64c3365dd144e3cc3c6ced'
tp772
a(S'/usr/include/c++/4.4/bits/stringfwd.h'
F1289737644
S'e53ae73e727730f1291cfa36f4d9f805'
tp773
a(S'/usr/include/c++/4.4/cassert'
F1289737646
S'4a0777f0bf13f0db5f67a2cb57450c17'
tp774
a(S'/usr/include/c++/4.4/cctype'
F1289737646
S'b71a74d9d04f50a8abf8d56dc1370f72'
tp775
a(S'/usr/include/c++/4.4/climits'
F1289737646
S'a91a0d6343d3da3f4b00600c5da5e6dc'
tp776
a(S'/usr/include/c++/4.4/clocale'
F1289737646
S'd4880aa93c5a4e049f4399ac2571d8d5'
tp777
a(S'/usr/include/c++/4.4/cmath'
F1289737646
S'c96b6f7178fa8933764f20635934a0a1'
tp778
a(S'/usr/include/c++/4.4/complex'
F1289737646
S'4e6405a1cd61b65bd1ee402a412b0539'
tp779
a(S'/usr/include/c++/4.4/cstddef'
F1289737646
S'74baada893fbda8c10a19600372cedc9'
tp780
a(S'/usr/include/c++/4.4/cstdlib'
F1289737646
S'cd1ce87c66e0592f7a825aa504d56f94'
tp781
a(S'/usr/include/c++/4.4/cstring'
F1289737646
S'cd239349fcb4aad7f364d74ad0f4cc58'
tp782
a(S'/usr/include/c++/4.4/ctime'
F1289737646
S'72ec3c45aeddf48e58d81d54d00aa022'
tp783
a(S'/usr/include/c++/4.4/cwchar'
F1289737646
S'02199fae7878ab5e1d9daed492d9110a'
tp784
a(S'/usr/include/c++/4.4/cwctype'
F1289737646
S'f611857dab2a5d00e32331043f57ab9c'
tp785
a(S'/usr/include/c++/4.4/cxxabi-forced.h'
F1289737646
S'ef7f9d452a05544042692cc940b35a52'
tp786
a(S'/usr/include/c++/4.4/debug/debug.h'
F1289737646
S'8a6528d80bad2e7aa97215ce968ea312'
tp787
a(S'/usr/include/c++/4.4/exception'
F1289737646
S'724b419669ab7851251d6f7cc643b357'
tp788
a(S'/usr/include/c++/4.4/exception_defines.h'
F1289737646
S'891283248a3a01388c23e409654e3196'
tp789
a(S'/usr/include/c++/4.4/ext/atomicity.h'
F1289737644
S'b3605b70ddd2adb4823f95f755b65979'
tp790
a(S'/usr/include/c++/4.4/ext/new_allocator.h'
F1289737644
S'a369d1538a17c31ce29f5cca9cc17fe7'
tp791
a(S'/usr/include/c++/4.4/ext/numeric_traits.h'
F1289737644
S'bc118e398c56933cc554bda46e7a9ff5'
tp792
a(S'/usr/include/c++/4.4/ext/type_traits.h'
F1289737644
S'bfad422da606bca7e1193ca428ae5c57'
tp793
a(S'/usr/include/c++/4.4/functional'
F1289737646
S'8f00a52b6ccd2642c7de838d081b29c8'
tp794
a(S'/usr/include/c++/4.4/i486-linux-gnu/bits/atomic_word.h'
F1289737641
S'2e1c3ca2129ba9d0d9179f5579501e19'
tp795
a(S'/usr/include/c++/4.4/i486-linux-gnu/bits/c++allocator.h'
F1289737641
S'048634bd16871e99a1d9caeab9d6d9cd'
tp796
a(S'/usr/include/c++/4.4/i486-linux-gnu/bits/c++config.h'
F1289737641
S'f376d446b5a2bfbde71172474f1628c2'
tp797
a(S'/usr/include/c++/4.4/i486-linux-gnu/bits/c++locale.h'
F1289737641
S'b8c0d5d62c725004a98d24fad6bf9e92'
tp798
a(S'/usr/include/c++/4.4/i486-linux-gnu/bits/cpu_defines.h'
F1289737641
S'b64424432af8860e84e70e238daa5e32'
tp799
a(S'/usr/include/c++/4.4/i486-linux-gnu/bits/ctype_base.h'
F1289737641
S'c7d41f3087466a436f5eda336b6b8de4'
tp800
a(S'/usr/include/c++/4.4/i486-linux-gnu/bits/ctype_inline.h'
F1289737641
S'80ba4abfbe14828d1fb5cda3a42f4225'
tp801
a(S'/usr/include/c++/4.4/i486-linux-gnu/bits/gthr-default.h'
F1289737642
S'55323fd717fbfd41eb9ff4e307119e2a'
tp802
a(S'/usr/include/c++/4.4/i486-linux-gnu/bits/gthr.h'
F1289737641
S'cf9812aea7e893af1ff2e47ea7209814'
tp803
a(S'/usr/include/c++/4.4/i486-linux-gnu/bits/messages_members.h'
F1289737641
S'c445b058727a61cf5db8e9981d3125cf'
tp804
a(S'/usr/include/c++/4.4/i486-linux-gnu/bits/os_defines.h'
F1289737641
S'36a215640a5e3a29687fd341567ff5d1'
tp805
a(S'/usr/include/c++/4.4/i486-linux-gnu/bits/time_members.h'
F1289737641
S'db0be6b9be44e60c98c02e5cc1dc6da1'
tp806
a(S'/usr/include/c++/4.4/initializer_list'
F1289737646
S'd59f87a4fefa92ff1d78cc23c0bccf94'
tp807
a(S'/usr/include/c++/4.4/ios'
F1289737646
S'b4d2b8be4e7c4fdd7cbe35c17e3d2d15'
tp808
a(S'/usr/include/c++/4.4/iosfwd'
F1289737646
S'17489a169a1d62a15c2f088aa3791d0b'
tp809
a(S'/usr/include/c++/4.4/istream'
F1289737646
S'9d30dabd1a1d07cac190e85762a88739'
tp810
a(S'/usr/include/c++/4.4/iterator'
F1289737646
S'979f9b53bf349c9e79cb686625044ea5'
tp811
a(S'/usr/include/c++/4.4/limits'
F1289737646
S'23821e66d00a0e8989a8b38873834946'
tp812
a(S'/usr/include/c++/4.4/locale'
F1289737646
S'1590d8e7f37ff4e6abfda8a4ebf89d1a'
tp813
a(S'/usr/include/c++/4.4/memory'
F1289737646
S'f9d0f9b8f28bf7dc9aaf5771cd37c2b8'
tp814
a(S'/usr/include/c++/4.4/new'
F1289737646
S'11ba5131b10789cbecfc8c0ceb280e4a'
tp815
a(S'/usr/include/c++/4.4/ostream'
F1289737646
S'25ae86c81f9cc0defa1cd0b9350fa353'
tp816
a(S'/usr/include/c++/4.4/sstream'
F1289737646
S'956e7bd406e5c0bea87de8afad88ac55'
tp817
a(S'/usr/include/c++/4.4/stdexcept'
F1289737646
S'11d87e92f7bd92316c8a98b460164cec'
tp818
a(S'/usr/include/c++/4.4/streambuf'
F1289737646
S'dec51dc305e162d5cf89342c2f4d3677'
tp819
a(S'/usr/include/c++/4.4/string'
F1289737646
S'76ecf310adc71295d2283a0e63644856'
tp820
a(S'/usr/include/c++/4.4/typeinfo'
F1289737646
S'312b6e9dea42fb0e9d942a13d9a70923'
tp821
a(S'/usr/include/c++/4.4/utility'
F1289737646
S'7fefee8b01eda5342d278f21656295cf'
tp822
a(S'/usr/include/ctype.h'
F1295827739
S'771037833f424f8910a51ed2cdea03cb'
tp823
a(S'/usr/include/endian.h'
F1295827749
S'566f63c5e01d31f43f69b295daa32dd7'
tp824
a(S'/usr/include/errno.h'
F1295827745
S'2539ba2522a507744ae199e6b362c8cc'
tp825
a(S'/usr/include/features.h'
F1295827719
S'a0d1d39f0faaa19b32e8d60b19a6290e'
tp826
a(S'/usr/include/getopt.h'
F1295827755
S'766e928e6adda9d71474e979d0610e80'
tp827
a(S'/usr/include/gnu/stubs-32.h'
F1295827290
S'a7bf8ad76f04511946e8d70157b6c5c8'
tp828
a(S'/usr/include/gnu/stubs.h'
F1295827719
S'326ea516d2af549d9de3f71532c4e4e4'
tp829
a(S'/usr/include/inttypes.h'
F1295827745
S'5a84ba34be43e7e933855b07dc5dd102'
tp830
a(S'/usr/include/libintl.h'
F1295827740
S'4f5a170db1ac06e1566b54c702772eb8'
tp831
a(S'/usr/include/libio.h'
F1295827747
S'0a743f14a7caffccd8120c25bec98074'
tp832
a(S'/usr/include/limits.h'
F1295827719
S'b47bc8ca13804100824534c881950910'
tp833
a(S'/usr/include/linux/errno.h'
F1299635710
S'1e0b14f0c900689ad267ee3ac12ccbf8'
tp834
a(S'/usr/include/linux/limits.h'
F1299635710
S'dcc63f12c47a79925586edeeba88d40f'
tp835
a(S'/usr/include/locale.h'
F1295827720
S'b1077d7602e865db64d6251b320e6b90'
tp836
a(S'/usr/include/math.h'
F1295827742
S'11953456634eb4fb90f98b67f7de681e'
tp837
a(S'/usr/include/pthread.h'
F1295827766
S'c39ed969a48528dddb1e0ff393c3cba8'
tp838
a(S'/usr/include/python2.6/Python.h'
F1293410533
S'd4585ecad47c64b8c100ccd1513cdaee'
tp839
a(S'/usr/include/python2.6/abstract.h'
F1293410533
S'1fb3eb2791f5e97fcf5d244c5219a253'
tp840
a(S'/usr/include/python2.6/boolobject.h'
F1293410533
S'e1df85c8e4bb75f121c52f283744af07'
tp841
a(S'/usr/include/python2.6/bufferobject.h'
F1293410533
S'7a0401b7ac6afb7f82318cd0333b50d3'
tp842
a(S'/usr/include/python2.6/bytearrayobject.h'
F1293410533
S'673cd4507dd92a8312adfa81a03210f7'
tp843
a(S'/usr/include/python2.6/bytesobject.h'
F1293410533
S'a8b092e5d5101d4e9c9e60f7f228c2fe'
tp844
a(S'/usr/include/python2.6/cellobject.h'
F1293410533
S'169c9d9010b3588daec9dc6c04bc8fe3'
tp845
a(S'/usr/include/python2.6/ceval.h'
F1293410533
S'80eeee04f1de22781eb1b868ea913181'
tp846
a(S'/usr/include/python2.6/classobject.h'
F1293410533
S'55108a5adbabb7e6c7abbd0931c1fe0d'
tp847
a(S'/usr/include/python2.6/cobject.h'
F1293410533
S'6d40a4514b7fa40dacef6077683c53c7'
tp848
a(S'/usr/include/python2.6/code.h'
F1293410533
S'f257f99c591ad38b20a60d4938d79962'
tp849
a(S'/usr/include/python2.6/codecs.h'
F1293410533
S'1dc57ec453106e5ea6b366077434062f'
tp850
a(S'/usr/include/python2.6/compile.h'
F1293410533
S'ed5b67ad17d44d6f51ff6d18c50d3788'
tp851
a(S'/usr/include/python2.6/complexobject.h'
F1293410533
S'ea78e9784cd40e1e5b7d62b53be61da2'
tp852
a(S'/usr/include/python2.6/descrobject.h'
F1293410533
S'1783238e6d204ce471f31e83bdcfcf5b'
tp853
a(S'/usr/include/python2.6/dictobject.h'
F1293410533
S'8e8a0bb87e0b2cfe51fae3575ba896bb'
tp854
a(S'/usr/include/python2.6/enumobject.h'
F1293410533
S'6c9648f286c04930d3224d437c619619'
tp855
a(S'/usr/include/python2.6/eval.h'
F1293410533
S'3a1335312da24435830d8df3d1d684e9'
tp856
a(S'/usr/include/python2.6/fileobject.h'
F1293410533
S'c46a577a64cda645725bfcd5459c825c'
tp857
a(S'/usr/include/python2.6/floatobject.h'
F1293410533
S'3eb1ecf3cbb369b8bc39c062f3441057'
tp858
a(S'/usr/include/python2.6/funcobject.h'
F1293410533
S'3f06f52410a6fbefea314229cc30b39a'
tp859
a(S'/usr/include/python2.6/genobject.h'
F1293410533
S'c364ad706081c6f64a693ffdbadc7a33'
tp860
a(S'/usr/include/python2.6/import.h'
F1293410533
S'1a3a042549752b52541dbe84da3adcac'
tp861
a(S'/usr/include/python2.6/intobject.h'
F1293410533
S'ecf0b7ae9af086d7779381eeac29719a'
tp862
a(S'/usr/include/python2.6/intrcheck.h'
F1293410533
S'6059a090d160948dc878d53b9f769068'
tp863
a(S'/usr/include/python2.6/iterobject.h'
F1293410533
S'614ea3dae2bd8c25ba8a658f646c7f40'
tp864
a(S'/usr/include/python2.6/listobject.h'
F1293410533
S'a72cbb2d83141e0eb4547fbba0dcd3b0'
tp865
a(S'/usr/include/python2.6/longobject.h'
F1293410533
S'1fe0e78dcd6e935186f8db59c3f799dc'
tp866
a(S'/usr/include/python2.6/methodobject.h'
F1293410533
S'a354ff395500f862ad802f3728f6aacb'
tp867
a(S'/usr/include/python2.6/modsupport.h'
F1293410533
S'd3f8d184d8ddf4dc91248a22a1897f85'
tp868
a(S'/usr/include/python2.6/moduleobject.h'
F1293410533
S'6172f0cfb0980579caedd03ff42e4162'
tp869
a(S'/usr/include/python2.6/object.h'
F1293410533
S'c3a9cdd96cb2b2592719655f3d89073f'
tp870
a(S'/usr/include/python2.6/objimpl.h'
F1293410533
S'a074a2f489e9aad6ea48d174abac2442'
tp871
a(S'/usr/include/python2.6/patchlevel.h'
F1293410533
S'aeb0f31d0a61e290fb60a472f07dac59'
tp872
a(S'/usr/include/python2.6/pyarena.h'
F1293410533
S'e3ed8eb8c70bf0f3dfebdc9c22e7a85d'
tp873
a(S'/usr/include/python2.6/pyconfig.h'
F1293410533
S'27fdb475368536c67881a91db2cc964f'
tp874
a(S'/usr/include/python2.6/pydebug.h'
F1293410533
S'e05cfd1a014756ad121ee5f95b56aad5'
tp875
a(S'/usr/include/python2.6/pyerrors.h'
F1293410533
S'33ec293a3cb2b1f32d7ca3211091abf6'
tp876
a(S'/usr/include/python2.6/pyfpe.h'
F1293410533
S'a4fb6d76fd808fc46051554f56809546'
tp877
a(S'/usr/include/python2.6/pymacconfig.h'
F1293410533
S'0a260cd7288609837e5d7791713795fa'
tp878
a(S'/usr/include/python2.6/pymath.h'
F1293410533
S'71ccccf337ac2a3cb7583ab4c5b01267'
tp879
a(S'/usr/include/python2.6/pymem.h'
F1293410533
S'bdceb486bd547d983bb4d06bf120396c'
tp880
a(S'/usr/include/python2.6/pyport.h'
F1293410533
S'f1fc73358b03154b98cb36a0e053e90d'
tp881
a(S'/usr/include/python2.6/pystate.h'
F1293410533
S'a8c531890eeffa0ee165bdd567a73fab'
tp882
a(S'/usr/include/python2.6/pystrcmp.h'
F1293410533
S'0cd4702a270b831b7f8c77ab01fe50d0'
tp883
a(S'/usr/include/python2.6/pystrtod.h'
F1293410533
S'c4db02a1a8a5d7be92ae00a616043d74'
tp884
a(S'/usr/include/python2.6/pythonrun.h'
F1293410533
S'a181ff5894ac490c07808f5909312c52'
tp885
a(S'/usr/include/python2.6/rangeobject.h'
F1293410533
S'8154225c2c62e79e6d726d8efbd7cc69'
tp886
a(S'/usr/include/python2.6/setobject.h'
F1293410533
S'b3a38976d5f097f6e45ce107e654bc26'
tp887
a(S'/usr/include/python2.6/sliceobject.h'
F1293410533
S'2c5ffe5197d92ad604a0cf34aec4fc1c'
tp888
a(S'/usr/include/python2.6/stringobject.h'
F1293410533
S'4ea3d9908dbd9d26601e44735f5da13d'
tp889
a(S'/usr/include/python2.6/sysmodule.h'
F1293410533
S'500a448a3505f95eeb48ccabbbd097f6'
tp890
a(S'/usr/include/python2.6/traceback.h'
F1293410533
S'b5a8bae263b8eae0d1164e06fd40c8a6'
tp891
a(S'/usr/include/python2.6/tupleobject.h'
F1293410533
S'7c4d49cca348ba048cc49db31c3c5ed3'
tp892
a(S'/usr/include/python2.6/unicodeobject.h'
F1293410533
S'a7521ba5ead8fb50d3b7166d089d71d7'
tp893
a(S'/usr/include/python2.6/warnings.h'
F1293410533
S'ddc9dc18e3541cdece5848cd2be4769b'
tp894
a(S'/usr/include/python2.6/weakrefobject.h'
F1293410533
S'aad69375037c52b2f3062d8026bb05bc'
tp895
a(S'/usr/include/sched.h'
F1295827755
S'8bb1a5ff25ea377a0098554f7287cb13'
tp896
a(S'/usr/include/setjmp.h'
F1295827743
S'fc5dec73e66bd8469cbfdffdc4ae498d'
tp897
a(S'/usr/include/signal.h'
F1295827744
S'f555806f0b6762b7cd445c3656e67ad6'
tp898
a(S'/usr/include/stdint.h'
F1295827745
S'e698c377fc5196eb34a1edacee3eb2c1'
tp899
a(S'/usr/include/stdio.h'
F1295827747
S'b737aeeea9d19be9b3740017f794dadc'
tp900
a(S'/usr/include/stdlib.h'
F1295827745
S'1f35e63c7e8e6ab283e1b5cb767fd6bb'
tp901
a(S'/usr/include/string.h'
F1295827749
S'e6e7c3dca54e6b08c0e3890914ceaf16'
tp902
a(S'/usr/include/sys/cdefs.h'
F1295827758
S'6edf48eea65157e9a8c86c324a6f6942'
tp903
a(S'/usr/include/sys/select.h'
F1295827758
S'130b54f920c530af205dcf8f40481014'
tp904
a(S'/usr/include/sys/stat.h'
F1295827756
S'0d29a0f227b88d6a15c45a04f0f600aa'
tp905
a(S'/usr/include/sys/sysmacros.h'
F1295827755
S'c593bd20ffb2a01c6192dacee4acf2a9'
tp906
a(S'/usr/include/sys/time.h'
F1295827752
S'28a7946a56d46d8ad012e2a0bebe80c1'
tp907
a(S'/usr/include/sys/types.h'
F1295827755
S'ac5b3da3ea53cf7141c907159c436822'
tp908
a(S'/usr/include/sys/ucontext.h'
F1295827745
S'73fc6a2a32678895efb9141fc7655e7f'
tp909
a(S'/usr/include/time.h'
F1295827752
S'4f11625b7dfc7d2743e3baaa136c1c5d'
tp910
a(S'/usr/include/unistd.h'
F1295827755
S'37b05e30c6689809c5ed171645196a44'
tp911
a(S'/usr/include/wchar.h'
F1295827750
S'45491f9ffd09a79b4b281679222cce4b'
tp912
a(S'/usr/include/wctype.h'
F1295827761
S'd4c77b2574b7a9dfa301297fabd60603'
tp913
a(S'/usr/include/xlocale.h'
F1295827721
S'661c792679030c19cd52a35cc1e6bc99'
tp914
a(S'/usr/lib/gcc/i486-linux-gnu/4.4.5/include-fixed/limits.h'
F1289723350
S'5c2f45596d3a8b5fa26653e2f71c4296'
tp915
a(S'/usr/lib/gcc/i486-linux-gnu/4.4.5/include-fixed/syslimits.h'
F1289722363
S'c32a1d882e7039afe158bb9e59b65223'
tp916
a(S'/usr/lib/gcc/i486-linux-gnu/4.4.5/include/stdarg.h'
F1289723350
S'6a912263540a2dfa8d258931158882d5'
tp917
a(S'/usr/lib/gcc/i486-linux-gnu/4.4.5/include/stddef.h'
F1289723350
S'64410b8cfcefc8b3a9513200966d02df'
tp918
a(S'/usr/lib/pymodules/python2.6/numpy/core/include/numpy/__multiarray_api.h'
F1286442724
S'62202058ee3e8aa33a5527082ccc9a1f'
tp919
a(S'/usr/lib/pymodules/python2.6/numpy/core/include/numpy/_neighborhood_iterator_imp.h'
F1271928923
S'5ad257f8f9ef7f90f4afc3914270807c'
tp920
a(S'/usr/lib/pymodules/python2.6/numpy/core/include/numpy/_numpyconfig.h'
F1286442802
S'7bc3b02834a5c54c7a95e4759f7afebb'
tp921
a(S'/usr/lib/pymodules/python2.6/numpy/core/include/numpy/arrayobject.h'
F1267535999
S'7cb37e1ac393686b49910515ab0787e9'
tp922
a(S'/usr/lib/pymodules/python2.6/numpy/core/include/numpy/ndarrayobject.h'
F1271928923
S'8a49dc16a3c9a2fb2424881375349094'
tp923
a(S'/usr/lib/pymodules/python2.6/numpy/core/include/numpy/npy_common.h'
F1271928923
S'dbe218d4507f7359c2897de9c4c571e5'
tp924
a(S'/usr/lib/pymodules/python2.6/numpy/core/include/numpy/npy_cpu.h'
F1271928923
S'22d9941d02e04ce4278d11ae35930a1d'
tp925
a(S'/usr/lib/pymodules/python2.6/numpy/core/include/numpy/npy_endian.h'
F1271928923
S'0cfd858efb90bd2993ea00d279e17d6a'
tp926
a(S'/usr/lib/pymodules/python2.6/numpy/core/include/numpy/npy_interrupt.h'
F1267535999
S'898400f8cb3352a6ff577a526a51db59'
tp927
a(S'/usr/lib/pymodules/python2.6/numpy/core/include/numpy/numpyconfig.h'
F1271928923
S'fd67456f0a445964e840d5c1135df216'
tp928
a(S'/usr/lib/pymodules/python2.6/numpy/core/include/numpy/old_defines.h'
F1271928923
S'19c776f675c2133ec9744fa6c183f85f'
tp929
a(S'/usr/lib/pymodules/python2.6/numpy/core/include/numpy/utils.h'
F1271928923
S'dc2814a8226211eac5430ab615e776f5'
tp930
asS'source_name'
p931
S'module.cpp'
p932
sb.